Archive member included to satisfy reference by file (symbol)

bin/obj/rslib.a(imx8mp_kernel-d04bdacbb24302de.imx8mp_kernel.6f56ecdf942cbc9a-cgu.0.rcgu.o)
                              bin/obj/drivers/uart/uart.o (UART_txbuf_push)
bin/obj/rslib.a(core-9bc28a7f9131c3bd.core.d226853cd57cf678-cgu.0.rcgu.o)
                              bin/obj/rslib.a(imx8mp_kernel-d04bdacbb24302de.imx8mp_kernel.6f56ecdf942cbc9a-cgu.0.rcgu.o) (core::panicking::panic_bounds_check)
bin/obj/rslib.a(compiler_builtins-f062c31c443b6323.compiler_builtins.9d65875af80bedf9-cgu.155.rcgu.o)
                              bin/obj/drivers/arm_generic_timer/arm_generic_timer.o (__udivti3)
bin/obj/rslib.a(compiler_builtins-f062c31c443b6323.compiler_builtins.9d65875af80bedf9-cgu.167.rcgu.o)
                              bin/obj/rslib.a(core-9bc28a7f9131c3bd.core.d226853cd57cf678-cgu.0.rcgu.o) (memcmp)
bin/obj/rslib.a(compiler_builtins-f062c31c443b6323.compiler_builtins.9d65875af80bedf9-cgu.195.rcgu.o)
                              bin/obj/rslib.a(core-9bc28a7f9131c3bd.core.d226853cd57cf678-cgu.0.rcgu.o) (memset)
bin/obj/rslib.a(compiler_builtins-f062c31c443b6323.compiler_builtins.9d65875af80bedf9-cgu.254.rcgu.o)
                              bin/obj/rslib.a(imx8mp_kernel-d04bdacbb24302de.imx8mp_kernel.6f56ecdf942cbc9a-cgu.0.rcgu.o) (memcpy)
bin/obj/rslib.a(compiler_builtins-f062c31c443b6323.compiler_builtins.9d65875af80bedf9-cgu.010.rcgu.o)
                              bin/obj/rslib.a(compiler_builtins-f062c31c443b6323.compiler_builtins.9d65875af80bedf9-cgu.155.rcgu.o) (compiler_builtins::int::specialized_div_rem::u128_div_rem)

Discarded input sections

 .llvmbc        0x0000000000000000   0x144a54 bin/obj/rslib.a(core-9bc28a7f9131c3bd.core.d226853cd57cf678-cgu.0.rcgu.o)
 .llvmcmd       0x0000000000000000        0x0 bin/obj/rslib.a(core-9bc28a7f9131c3bd.core.d226853cd57cf678-cgu.0.rcgu.o)
 .llvmbc        0x0000000000000000      0xbe0 bin/obj/rslib.a(compiler_builtins-f062c31c443b6323.compiler_builtins.9d65875af80bedf9-cgu.155.rcgu.o)
 .llvmcmd       0x0000000000000000        0x0 bin/obj/rslib.a(compiler_builtins-f062c31c443b6323.compiler_builtins.9d65875af80bedf9-cgu.155.rcgu.o)
 .llvmbc        0x0000000000000000      0xbd4 bin/obj/rslib.a(compiler_builtins-f062c31c443b6323.compiler_builtins.9d65875af80bedf9-cgu.167.rcgu.o)
 .llvmcmd       0x0000000000000000        0x0 bin/obj/rslib.a(compiler_builtins-f062c31c443b6323.compiler_builtins.9d65875af80bedf9-cgu.167.rcgu.o)
 .llvmbc        0x0000000000000000      0xbd0 bin/obj/rslib.a(compiler_builtins-f062c31c443b6323.compiler_builtins.9d65875af80bedf9-cgu.195.rcgu.o)
 .llvmcmd       0x0000000000000000        0x0 bin/obj/rslib.a(compiler_builtins-f062c31c443b6323.compiler_builtins.9d65875af80bedf9-cgu.195.rcgu.o)
 .llvmbc        0x0000000000000000      0xbd0 bin/obj/rslib.a(compiler_builtins-f062c31c443b6323.compiler_builtins.9d65875af80bedf9-cgu.254.rcgu.o)
 .llvmcmd       0x0000000000000000        0x0 bin/obj/rslib.a(compiler_builtins-f062c31c443b6323.compiler_builtins.9d65875af80bedf9-cgu.254.rcgu.o)
 .llvmbc        0x0000000000000000     0x2d54 bin/obj/rslib.a(compiler_builtins-f062c31c443b6323.compiler_builtins.9d65875af80bedf9-cgu.010.rcgu.o)
 .llvmcmd       0x0000000000000000        0x0 bin/obj/rslib.a(compiler_builtins-f062c31c443b6323.compiler_builtins.9d65875af80bedf9-cgu.010.rcgu.o)

Memory Configuration

Name             Origin             Length             Attributes
*default*        0x0000000000000000 0xffffffffffffffff

Linker script and memory map

                0x0000000040000000                . = 0x40000000

.text           0x0000000040000000    0x2c040
                0x0000000040000000                __text_start = .
 *(.text.boot)
 .text.boot     0x0000000040000000       0x40 bin/obj/__boot/boot.o
                0x0000000040000000                _start
 *(.text*)
 .text          0x0000000040000040       0x40 bin/obj/__arm/cache/cache.o
                0x0000000040000040                _cache_flush_range
 .text          0x0000000040000080       0x3c bin/obj/__arm/cache/icache.o
                0x0000000040000080                _icache_flush_range
 .text          0x00000000400000bc       0x3c bin/obj/__arm/cache/dcache.o
                0x00000000400000bc                _dcache_flush_range
 *fill*         0x00000000400000f8        0x8 
 .text          0x0000000040000100      0x114 bin/obj/__arm/sysregs/arm_generic_timer.o
                0x0000000040000100                _ARM_CNTFRQ_EL0_set
                0x000000004000010c                _ARM_CNTFRQ_EL0_get
                0x0000000040000114                _ARM_CNTPCT_EL0_get
                0x000000004000011c                _ARM_CNTVCT_EL0_get
                0x0000000040000124                _ARM_CNTP_CTL_EL0_set
                0x0000000040000130                _ARM_CNTP_CTL_EL0_get
                0x0000000040000138                _ARM_CNTP_CVAL_EL0_set
                0x0000000040000144                _ARM_CNTP_CVAL_EL0_get
                0x000000004000014c                _ARM_CNTP_TVAL_EL0_set
                0x0000000040000158                _ARM_CNTP_TVAL_EL0_get
                0x0000000040000160                _ARM_CNTV_CTL_EL0_set
                0x000000004000016c                _ARM_CNTV_CTL_EL0_get
                0x0000000040000174                _ARM_CNTV_CVAL_EL0_set
                0x0000000040000180                _ARM_CNTV_CVAL_EL0_get
                0x0000000040000188                _ARM_CNTV_TVAL_EL0_set
                0x0000000040000194                _ARM_CNTV_TVAL_EL0_get
                0x000000004000019c                _ARM_CNTKCTL_EL1_set
                0x00000000400001a8                _ARM_CNTKCTL_EL1_get
                0x00000000400001b0                _ARM_CNTHCTL_EL2_set
                0x00000000400001bc                _ARM_CNTHCTL_EL2_get
                0x00000000400001c4                _ARM_CNTVOFF_EL2_set
                0x00000000400001d0                _ARM_CNTVOFF_EL2_get
                0x00000000400001d8                _ARM_CNTPS_CTL_EL1_set
                0x00000000400001e4                _ARM_CNTPS_CTL_EL1_get
                0x00000000400001ec                _ARM_CNTPS_CVAL_EL1_set
                0x00000000400001f8                _ARM_CNTPS_CVAL_EL1_get
                0x0000000040000200                _ARM_CNTPS_TVAL_EL1_set
                0x000000004000020c                _ARM_CNTPS_TVAL_EL1_get
 .text          0x0000000040000214       0x74 bin/obj/__arm/sysregs/sysregs.o
                0x0000000040000214                _ARM_currentEL
                0x0000000040000220                _ARM_MPIDR_EL1
                0x0000000040000228                _ARM_ICC_SRE_EL2
                0x0000000040000230                _ARM_HCR_EL2
                0x0000000040000238                _ARM_ESR_EL2
                0x0000000040000240                _ARM_ELR_EL2
                0x0000000040000248                _ARM_FAR_EL2
                0x0000000040000250                _ARM_SPSR_EL2
                0x0000000040000258                _ARM_ESR_EL1
                0x0000000040000260                _ARM_ELR_EL1
                0x0000000040000268                _ARM_FAR_EL1
                0x0000000040000270                _ARM_SPSR_EL1
                0x0000000040000278                _ARM_SCTLR_EL1
                0x0000000040000280                _ARM_SCTLR_EL2
 *fill*         0x0000000040000288      0x578 
 .text          0x0000000040000800     0x1100 bin/obj/__arm/exceptions/el2_vectors.o
                0x0000000040000800                _el2_init_vector
 .text          0x0000000040001900       0x68 bin/obj/__arm/exceptions/exceptions.o
                0x0000000040001900                _exceptions_get_DAIF
                0x0000000040001908                _fiq_exceptions_enable
                0x0000000040001914                _irq_exceptions_enable
                0x0000000040001920                _serror_exceptions_enable
                0x000000004000192c                _debug_exceptions_enable
                0x0000000040001938                _fiq_exceptions_disable
                0x0000000040001944                _irq_exceptions_disable
                0x0000000040001950                _serror_exceptions_disable
                0x000000004000195c                _debug_exceptions_disable
 *fill*         0x0000000040001968      0x698 
 .text          0x0000000040002000     0x1100 bin/obj/__arm/exceptions/el1_vectors.o
                0x0000000040002000                _el1_init_vector
 .text          0x0000000040003100      0x250 bin/obj/__lib/memcpy/memcpy.o
                0x0000000040003100                _memcpy
                0x0000000040003210                _memcpy64
                0x0000000040003240                _memcpy32
                0x0000000040003270                _memcpy16
                0x00000000400032a0                _memcpy8
                0x00000000400032d0                _memcpy4
                0x0000000040003300                _memcpy2
                0x0000000040003330                _memcpy1
 .text          0x0000000040003350       0x3c bin/obj/__lib/lock/spinlock_irq.o
                0x0000000040003350                _spin_lock_irqsave
                0x000000004000336c                _spin_unlock_irqrestore
 *fill*         0x000000004000338c        0x4 
 .text          0x0000000040003390       0x14 bin/obj/__lib/lock/irqlock.o
                0x0000000040003390                _irq_lock
                0x000000004000339c                _irq_unlock
 *fill*         0x00000000400033a4        0xc 
 .text          0x00000000400033b0       0x68 bin/obj/__lib/lock/spinlock.o
                0x00000000400033b0                _spin_try_lock
                0x00000000400033d8                _spin_lock
                0x00000000400033f8                _spin_unlock
 .text          0x0000000040003418       0x58 bin/obj/__boot/clean_bss.o
                0x0000000040003418                _clean_bss
 .text          0x0000000040003470        0x0 bin/obj/__boot/boot.o
 .text          0x0000000040003470       0xc0 bin/obj/__boot/el1.o
                0x0000000040003470                _switch_to_el1
                0x00000000400034e0                _el1_entry
 .text          0x0000000040003530       0x68 bin/obj/__boot/panic/panic.o
                0x0000000040003530                _panic_exception_save_gpr
 *fill*         0x0000000040003598        0x8 
 .text          0x00000000400035a0        0x8 bin/obj/__drivers/tmu/tmu_critical_default.o
                0x00000000400035a0                _TMU_critical_hang
 *fill*         0x00000000400035a8        0x8 
 .text          0x00000000400035b0       0x3c bin/obj/__drivers/interrupts/gicv3/gicv3_arm_interface.o
                0x00000000400035b0                _GICV3_ARM_ICC_SRE_EL1_write
                0x00000000400035bc                _GICV3_ARM_ICC_PMR_EL1_write
                0x00000000400035c8                _GICV3_ARM_ICC_PMR_EL1_read
                0x00000000400035d0                _GICV3_ARM_ICC_IGRPEN1_EL1_write
                0x00000000400035dc                _GICV3_ARM_ICC_IAR1_EL1_read
                0x00000000400035e4                _GICV3_ARM_ICC_EOIR1_EL1_write
 .text          0x00000000400035ec      0x210 bin/obj/kernel/irq/irq.o
                0x00000000400037b0                kernel_handle_irq
 .text          0x00000000400037fc        0x0 bin/obj/kernel/devices/drivers.o
 .text          0x00000000400037fc      0x180 bin/obj/kernel/init/init_drivers.o
 .text          0x000000004000397c      0x128 bin/obj/kernel/init/init.o
                0x000000004000397c                kernel_init
 .text          0x0000000040003aa4        0x0 bin/obj/kernel/malloc/buddy_allocator.o
 .text          0x0000000040003aa4      0x164 bin/obj/kernel/kernel_entry.o
                0x0000000040003b28                kernel_entry
 .text          0x0000000040003c08       0x58 bin/obj/arm/cpu.o
                0x0000000040003c08                ARM_get_cpu_affinity
 .text          0x0000000040003c60       0x54 bin/obj/arm/exceptions/handlers/el1/el1_cur_sp0_fiq.o
                0x0000000040003c60                el1_cur_sp0_fiq_handler
 .text          0x0000000040003cb4       0x54 bin/obj/arm/exceptions/handlers/el1/el1_low_a32_serror.o
                0x0000000040003cb4                el1_low_a32_serror_handler
 .text          0x0000000040003d08       0x54 bin/obj/arm/exceptions/handlers/el1/el1_low_a32_fiq.o
                0x0000000040003d08                el1_low_a32_fiq_handler
 .text          0x0000000040003d5c       0x54 bin/obj/arm/exceptions/handlers/el1/el1_low_a64_sync.o
                0x0000000040003d5c                el1_low_a64_sync_handler
 .text          0x0000000040003db0       0x54 bin/obj/arm/exceptions/handlers/el1/el1_cur_spx_sync.o
                0x0000000040003db0                el1_cur_spx_sync_handler
 .text          0x0000000040003e04       0x54 bin/obj/arm/exceptions/handlers/el1/el1_cur_spx_fiq.o
                0x0000000040003e04                el1_cur_spx_fiq_handler
 .text          0x0000000040003e58       0x2c bin/obj/arm/exceptions/handlers/el1/el1_cur_spx_irq.o
                0x0000000040003e58                el1_cur_spx_irq_handler
 .text          0x0000000040003e84       0x54 bin/obj/arm/exceptions/handlers/el1/el1_cur_spx_serror.o
                0x0000000040003e84                el1_cur_spx_serror_handler
 .text          0x0000000040003ed8       0x54 bin/obj/arm/exceptions/handlers/el1/el1_low_a32_irq.o
                0x0000000040003ed8                el1_low_a32_irq_handler
 .text          0x0000000040003f2c       0x54 bin/obj/arm/exceptions/handlers/el1/el1_low_a64_fiq.o
                0x0000000040003f2c                el1_low_a64_fiq_handler
 .text          0x0000000040003f80       0x54 bin/obj/arm/exceptions/handlers/el1/el1_low_a64_irq.o
                0x0000000040003f80                el1_low_a64_irq_handler
 .text          0x0000000040003fd4       0x54 bin/obj/arm/exceptions/handlers/el1/el1_cur_sp0_sync.o
                0x0000000040003fd4                el1_cur_sp0_sync_handler
 .text          0x0000000040004028       0x54 bin/obj/arm/exceptions/handlers/el1/el1_cur_sp0_irq.o
                0x0000000040004028                el1_cur_sp0_irq_handler
 .text          0x000000004000407c       0x54 bin/obj/arm/exceptions/handlers/el1/el1_low_a64_serror.o
                0x000000004000407c                el1_low_a64_serror_handler
 .text          0x00000000400040d0       0x54 bin/obj/arm/exceptions/handlers/el1/el1_low_a32_sync.o
                0x00000000400040d0                el1_low_a32_sync_handler
 .text          0x0000000040004124       0x54 bin/obj/arm/exceptions/handlers/el1/el1_cur_sp0_serror.o
                0x0000000040004124                el1_cur_sp0_serror_handler
 .text          0x0000000040004178       0x54 bin/obj/arm/exceptions/handlers/el2/el2_low_a32_serror.o
                0x0000000040004178                el2_low_a32_serror_handler
 .text          0x00000000400041cc       0x54 bin/obj/arm/exceptions/handlers/el2/el2_cur_spx_serror.o
                0x00000000400041cc                el2_cur_spx_serror_handler
 .text          0x0000000040004220       0x54 bin/obj/arm/exceptions/handlers/el2/el2_low_a64_serror.o
                0x0000000040004220                el2_low_a64_serror_handler
 .text          0x0000000040004274       0x54 bin/obj/arm/exceptions/handlers/el2/el2_low_a64_sync.o
                0x0000000040004274                el2_low_a64_sync_handler
 .text          0x00000000400042c8       0x54 bin/obj/arm/exceptions/handlers/el2/el2_cur_sp0_irq.o
                0x00000000400042c8                el2_cur_sp0_irq_handler
 .text          0x000000004000431c       0x54 bin/obj/arm/exceptions/handlers/el2/el2_cur_sp0_serror.o
                0x000000004000431c                el2_cur_sp0_serror_handler
 .text          0x0000000040004370       0x54 bin/obj/arm/exceptions/handlers/el2/el2_low_a64_irq.o
                0x0000000040004370                el2_low_a64_irq_handler
 .text          0x00000000400043c4       0x54 bin/obj/arm/exceptions/handlers/el2/el2_low_a64_fiq.o
                0x00000000400043c4                el2_low_a64_fiq_handler
 .text          0x0000000040004418       0x54 bin/obj/arm/exceptions/handlers/el2/el2_cur_spx_fiq.o
                0x0000000040004418                el2_cur_spx_fiq_handler
 .text          0x000000004000446c       0x54 bin/obj/arm/exceptions/handlers/el2/el2_low_a32_irq.o
                0x000000004000446c                el2_low_a32_irq_handler
 .text          0x00000000400044c0       0x54 bin/obj/arm/exceptions/handlers/el2/el2_cur_sp0_fiq.o
                0x00000000400044c0                el2_cur_sp0_fiq_handler
 .text          0x0000000040004514       0x54 bin/obj/arm/exceptions/handlers/el2/el2_low_a32_fiq.o
                0x0000000040004514                el2_low_a32_fiq_handler
 .text          0x0000000040004568       0x54 bin/obj/arm/exceptions/handlers/el2/el2_cur_spx_sync.o
                0x0000000040004568                el2_cur_spx_sync_handler
 .text          0x00000000400045bc       0x54 bin/obj/arm/exceptions/handlers/el2/el2_low_a32_sync.o
                0x00000000400045bc                el2_low_a32_sync_handler
 .text          0x0000000040004610       0x54 bin/obj/arm/exceptions/handlers/el2/el2_cur_sp0_sync.o
                0x0000000040004610                el2_cur_sp0_sync_handler
 .text          0x0000000040004664       0x54 bin/obj/arm/exceptions/handlers/el2/el2_cur_spx_irq.o
                0x0000000040004664                el2_cur_spx_irq_handler
 .text          0x00000000400046b8      0x2ac bin/obj/arm/exceptions/exceptions.o
                0x00000000400046b8                ARM_exceptions_get_status
                0x000000004000474c                ARM_exceptions_set_status
                0x0000000040004868                ARM_exceptions_enable
                0x00000000400048dc                ARM_exceptions_disable
                0x0000000040004950                ARM_get_exception_level
 .text          0x0000000040004964      0x7ec bin/obj/lib/string.o
                0x0000000040004964                strcopy
                0x00000000400049f8                uint8_to_ascii_char
                0x0000000040004a70                stdint_to_ascii
 .text          0x0000000040005150      0x42c bin/obj/lib/memcpy/memcpy.o
                0x0000000040005150                memcpy64_aligned
                0x00000000400052a4                memcpy64
                0x0000000040005340                test_memcpy
 .text          0x000000004000557c      0x794 bin/obj/boot/panic/panic.o
                0x00000000400055cc                init_panic
                0x00000000400056d4                set_panic
                0x0000000040005754                panic
                0x0000000040005904                set_and_throw_panic
 .text          0x0000000040005d10      0x790 bin/obj/drivers/arm_generic_timer/arm_generic_timer.o
                0x0000000040005d10                AGT_ns_to_cycles
                0x0000000040005dbc                AGT_us_to_cycles
                0x0000000040005e5c                AGT_cnt_cycles
                0x0000000040005e70                AGT_cnt_freq
                0x0000000040005e84                AGT_cnt_time_ns
                0x0000000040005eec                AGT_cnt_time_us
                0x0000000040005fe8                AGT_timer_schedule_cycles
                0x00000000400060d8                AGT_timer_schedule_delta
                0x00000000400061e8                AGT_timer_is_armed
                0x0000000040006244                AGT_timer_has_fired
                0x00000000400062d8                AGT_timer_cancel
                0x0000000040006334                AGT_handle_irq
                0x0000000040006430                AGT_init_stage0
 .text          0x00000000400064a0     0x1e70 bin/obj/drivers/tmu/tmu.o
                0x00000000400075e0                TMU_init_stage0
                0x0000000040007714                TMU_init_stage1
                0x0000000040007a6c                TMU_handle_irq
                0x0000000040007af8                TMU_set_warn_temp
                0x0000000040007cd0                TMU_get_warnings_enabled
                0x0000000040007dac                TMU_enable_warnings
                0x0000000040007e18                TMU_disable_warnings
                0x0000000040007e84                TMU_warn_pending
                0x0000000040007ef0                TMU_set_critical_temp
                0x00000000400080c8                TMU_get_temp
 .text          0x0000000040008310     0x117c bin/obj/drivers/interrupts/gicv3/gicv3.o
                0x0000000040008d64                GICV3_set_cpu_priority_threshold
                0x0000000040008e64                GICV3_set_spi_group1ns
                0x0000000040008ee0                GICV3_route_spi_to_cpu
                0x0000000040008f60                GICV3_route_spi_to_self
                0x0000000040008f90                GICV3_enable_spi
                0x0000000040008fe4                GICV3_set_priority
                0x0000000040009060                GICV3_set_edge_triggered
                0x00000000400090d8                GICV3_set_level_sensitive
                0x0000000040009150                GICV3_wake_redistributor
                0x0000000040009208                GICV3_init_distributor
                0x0000000040009258                GICV3_init_cpu
                0x0000000040009284                GICV3_init_irq
                0x0000000040009370                GICV3_get_intid_el1
                0x000000004000938c                GICV3_ack_intid_el1
                0x00000000400093ac                GICV3_enable_ppi
 .text          0x000000004000948c        0x0 bin/obj/drivers/interrupts/irq.o
 .text          0x000000004000948c     0x2598 bin/obj/drivers/uart/uart.o
                0x000000004000a498                UART_reset
                0x000000004000a598                UART_read
                0x000000004000ac98                UART_get_irq_sources
                0x000000004000b230                unhandled_irq_source
                0x000000004000b4f4                UART_handle_irq
                0x000000004000b570                UART_init_stage0
                0x000000004000b7f4                UART_init_stage1
                0x000000004000b82c                UART_putc_sync
                0x000000004000b8a4                UART_puts_sync
                0x000000004000b8f4                UART_putc
                0x000000004000b9d4                UART_puts
 .text          0x000000004000ba24        0x0 bin/obj/rslib.a(imx8mp_kernel-d04bdacbb24302de.imx8mp_kernel.6f56ecdf942cbc9a-cgu.0.rcgu.o)
 .text._ZN4core5panic10panic_info12PanicMessage6as_str17hff4c20453d03ca71E
                0x000000004000ba24       0x40 bin/obj/rslib.a(imx8mp_kernel-d04bdacbb24302de.imx8mp_kernel.6f56ecdf942cbc9a-cgu.0.rcgu.o)
 .text.UART_txbuf_push
                0x000000004000ba64       0x60 bin/obj/rslib.a(imx8mp_kernel-d04bdacbb24302de.imx8mp_kernel.6f56ecdf942cbc9a-cgu.0.rcgu.o)
                0x000000004000ba64                UART_txbuf_push
 .text.UART_rxbuf_push
                0x000000004000bac4       0x6c bin/obj/rslib.a(imx8mp_kernel-d04bdacbb24302de.imx8mp_kernel.6f56ecdf942cbc9a-cgu.0.rcgu.o)
                0x000000004000bac4                UART_rxbuf_push
 .text.UART_txbuf_pop
                0x000000004000bb30       0x54 bin/obj/rslib.a(imx8mp_kernel-d04bdacbb24302de.imx8mp_kernel.6f56ecdf942cbc9a-cgu.0.rcgu.o)
                0x000000004000bb30                UART_txbuf_pop
 .text.UART_rxbuf_pop
                0x000000004000bb84       0x5c bin/obj/rslib.a(imx8mp_kernel-d04bdacbb24302de.imx8mp_kernel.6f56ecdf942cbc9a-cgu.0.rcgu.o)
                0x000000004000bb84                UART_rxbuf_pop
 .text.rust_kernel_initcalls_stage0
                0x000000004000bbe0        0x4 bin/obj/rslib.a(imx8mp_kernel-d04bdacbb24302de.imx8mp_kernel.6f56ecdf942cbc9a-cgu.0.rcgu.o)
                0x000000004000bbe0                rust_kernel_initcalls_stage1
                0x000000004000bbe0                rust_kernel_initcalls_stage2
                0x000000004000bbe0                rust_kernel_initcalls_stage0
 .text.pow2_ring_buffer_new
                0x000000004000bbe4       0x70 bin/obj/rslib.a(imx8mp_kernel-d04bdacbb24302de.imx8mp_kernel.6f56ecdf942cbc9a-cgu.0.rcgu.o)
                0x000000004000bbe4                pow2_ring_buffer_new
 .text.pow2_ring_buffer_push
                0x000000004000bc54       0xbc bin/obj/rslib.a(imx8mp_kernel-d04bdacbb24302de.imx8mp_kernel.6f56ecdf942cbc9a-cgu.0.rcgu.o)
                0x000000004000bc54                pow2_ring_buffer_push
 .text.pow2_ring_buffer_pop
                0x000000004000bd10       0x90 bin/obj/rslib.a(imx8mp_kernel-d04bdacbb24302de.imx8mp_kernel.6f56ecdf942cbc9a-cgu.0.rcgu.o)
                0x000000004000bd10                pow2_ring_buffer_pop
 .text.unlikely.rust_test_panic
                0x000000004000bda0       0x2c bin/obj/rslib.a(imx8mp_kernel-d04bdacbb24302de.imx8mp_kernel.6f56ecdf942cbc9a-cgu.0.rcgu.o)
                0x000000004000bda0                rust_test_panic
 .text._RNvCs73fAdSrgOJL_7___rustc17rust_begin_unwind
                0x000000004000bdcc       0xcc bin/obj/rslib.a(imx8mp_kernel-d04bdacbb24302de.imx8mp_kernel.6f56ecdf942cbc9a-cgu.0.rcgu.o)
                0x000000004000bdcc                __rustc::rust_begin_unwind
 .text.unlikely._ZN13imx8mp_kernel7drivers4uart14UART_txbuf_pop19panic_cold_explicit17h9e80ac023c3cecedE
                0x000000004000be98        0xc bin/obj/rslib.a(imx8mp_kernel-d04bdacbb24302de.imx8mp_kernel.6f56ecdf942cbc9a-cgu.0.rcgu.o)
 .text.unlikely._ZN13imx8mp_kernel7drivers4uart14UART_rxbuf_pop19panic_cold_explicit17hd068fbc725f195f3E
                0x000000004000bea4        0xc bin/obj/rslib.a(imx8mp_kernel-d04bdacbb24302de.imx8mp_kernel.6f56ecdf942cbc9a-cgu.0.rcgu.o)
 .text          0x000000004000beb0        0x0 bin/obj/rslib.a(core-9bc28a7f9131c3bd.core.d226853cd57cf678-cgu.0.rcgu.o)
 .text._ZN4core3num7dec2flt11decimal_seq10DecimalSeq4trim17h239225fef6553793E
                0x000000004000beb0       0x50 bin/obj/rslib.a(core-9bc28a7f9131c3bd.core.d226853cd57cf678-cgu.0.rcgu.o)
                0x000000004000beb0                core::num::dec2flt::decimal_seq::DecimalSeq::trim
 .text._ZN4core3num7dec2flt11decimal_seq10DecimalSeq5round17hcd99f9eef6925b1dE
                0x000000004000bf00       0xb4 bin/obj/rslib.a(core-9bc28a7f9131c3bd.core.d226853cd57cf678-cgu.0.rcgu.o)
                0x000000004000bf00                core::num::dec2flt::decimal_seq::DecimalSeq::round
 .text._ZN4core3num7dec2flt11decimal_seq10DecimalSeq10left_shift17h704ff9fb5187922cE
                0x000000004000bfb4      0x210 bin/obj/rslib.a(core-9bc28a7f9131c3bd.core.d226853cd57cf678-cgu.0.rcgu.o)
                0x000000004000bfb4                core::num::dec2flt::decimal_seq::DecimalSeq::left_shift
 .text._ZN4core3num7dec2flt11decimal_seq10DecimalSeq11right_shift17h8db82994b3c2bf14E
                0x000000004000c1c4      0x1c0 bin/obj/rslib.a(core-9bc28a7f9131c3bd.core.d226853cd57cf678-cgu.0.rcgu.o)
                0x000000004000c1c4                core::num::dec2flt::decimal_seq::DecimalSeq::right_shift
 .text._ZN4core3num7dec2flt11decimal_seq17parse_decimal_seq17hbb02b8b8ca85be1cE
                0x000000004000c384      0x458 bin/obj/rslib.a(core-9bc28a7f9131c3bd.core.d226853cd57cf678-cgu.0.rcgu.o)
                0x000000004000c384                core::num::dec2flt::decimal_seq::parse_decimal_seq
 .text._ZN59_$LT$f32$u20$as$u20$core..num..dec2flt..float..RawFloat$GT$15pow10_fast_path17h7b92d2a3e72c541eE
                0x000000004000c7dc       0x14 bin/obj/rslib.a(core-9bc28a7f9131c3bd.core.d226853cd57cf678-cgu.0.rcgu.o)
                0x000000004000c7dc                <f32 as core::num::dec2flt::float::RawFloat>::pow10_fast_path
 .text._ZN59_$LT$f64$u20$as$u20$core..num..dec2flt..float..RawFloat$GT$15pow10_fast_path17hda41ea29af23df86E
                0x000000004000c7f0       0x14 bin/obj/rslib.a(core-9bc28a7f9131c3bd.core.d226853cd57cf678-cgu.0.rcgu.o)
                0x000000004000c7f0                <f64 as core::num::dec2flt::float::RawFloat>::pow10_fast_path
 .text._ZN4core3num7dec2flt6lemire13compute_float17h62e7558d2cc8ca41E
                0x000000004000c804      0x150 bin/obj/rslib.a(core-9bc28a7f9131c3bd.core.d226853cd57cf678-cgu.0.rcgu.o)
 .text._ZN4core3num7dec2flt6lemire13compute_float17h6aa166906e1074a5E
                0x000000004000c954      0x150 bin/obj/rslib.a(core-9bc28a7f9131c3bd.core.d226853cd57cf678-cgu.0.rcgu.o)
 .text._ZN4core3num7dec2flt6lemire13compute_float17hef96d143e35827f2E
                0x000000004000caa4      0x12c bin/obj/rslib.a(core-9bc28a7f9131c3bd.core.d226853cd57cf678-cgu.0.rcgu.o)
 .text._ZN4core3num7dec2flt6lemire22compute_product_approx17h9e1a88b957d01469E
                0x000000004000cbd0       0x6c bin/obj/rslib.a(core-9bc28a7f9131c3bd.core.d226853cd57cf678-cgu.0.rcgu.o)
                0x000000004000cbd0                core::num::dec2flt::lemire::compute_product_approx
 .text._ZN4core3num7dec2flt5parse12parse_number17hbca92825f9b664e4E
                0x000000004000cc3c      0x4f4 bin/obj/rslib.a(core-9bc28a7f9131c3bd.core.d226853cd57cf678-cgu.0.rcgu.o)
                0x000000004000cc3c                core::num::dec2flt::parse::parse_number
 .text._ZN74_$LT$core..num..dec2flt..ParseFloatError$u20$as$u20$core..fmt..Display$GT$3fmt17h496ce0b7b985998bE
                0x000000004000d130       0x30 bin/obj/rslib.a(core-9bc28a7f9131c3bd.core.d226853cd57cf678-cgu.0.rcgu.o)
                0x000000004000d130                <core::num::dec2flt::ParseFloatError as core::fmt::Display>::fmt
 .text._ZN4core3num9diy_float2Fp3mul17h8519799e05f14d06E
                0x000000004000d160       0x18 bin/obj/rslib.a(core-9bc28a7f9131c3bd.core.d226853cd57cf678-cgu.0.rcgu.o)
                0x000000004000d160                core::num::diy_float::Fp::mul
 .text._ZN4core3num9diy_float2Fp9normalize17h9ed65dc8c2333c5aE
                0x000000004000d178       0x10 bin/obj/rslib.a(core-9bc28a7f9131c3bd.core.d226853cd57cf678-cgu.0.rcgu.o)
                0x000000004000d178                core::num::diy_float::Fp::normalize
 .text._ZN4core3num9diy_float2Fp12normalize_to17heb6e4683b3c29736E
                0x000000004000d188       0x80 bin/obj/rslib.a(core-9bc28a7f9131c3bd.core.d226853cd57cf678-cgu.0.rcgu.o)
                0x000000004000d188                core::num::diy_float::Fp::normalize_to
 .text._ZN4core3num7flt2dec9estimator23estimate_scaling_factor17h2f9855900c15d5c5E
                0x000000004000d208       0x30 bin/obj/rslib.a(core-9bc28a7f9131c3bd.core.d226853cd57cf678-cgu.0.rcgu.o)
                0x000000004000d208                core::num::flt2dec::estimator::estimate_scaling_factor
 .text._ZN4core3num7flt2dec8strategy6dragon9mul_pow1017h592e831f8fcec2a0E
                0x000000004000d238      0x1ec bin/obj/rslib.a(core-9bc28a7f9131c3bd.core.d226853cd57cf678-cgu.0.rcgu.o)
                0x000000004000d238                core::num::flt2dec::strategy::dragon::mul_pow10
 .text._ZN4core3num7flt2dec8strategy6dragon15format_shortest17h97a13c12311f8182E
                0x000000004000d424      0xb74 bin/obj/rslib.a(core-9bc28a7f9131c3bd.core.d226853cd57cf678-cgu.0.rcgu.o)
                0x000000004000d424                core::num::flt2dec::strategy::dragon::format_shortest
 .text._ZN4core3num7flt2dec8strategy6dragon12format_exact17h585a42357806ac2bE
                0x000000004000df98      0xa0c bin/obj/rslib.a(core-9bc28a7f9131c3bd.core.d226853cd57cf678-cgu.0.rcgu.o)
                0x000000004000df98                core::num::flt2dec::strategy::dragon::format_exact
 .text._ZN4core3num7flt2dec8strategy5grisu12cached_power17h0fb1cb16214fe432E
                0x000000004000e9a4       0x74 bin/obj/rslib.a(core-9bc28a7f9131c3bd.core.d226853cd57cf678-cgu.0.rcgu.o)
                0x000000004000e9a4                core::num::flt2dec::strategy::grisu::cached_power
 .text._ZN4core3num7flt2dec8strategy5grisu19format_shortest_opt17h415f579398a1be5dE
                0x000000004000ea18      0x5d4 bin/obj/rslib.a(core-9bc28a7f9131c3bd.core.d226853cd57cf678-cgu.0.rcgu.o)
                0x000000004000ea18                core::num::flt2dec::strategy::grisu::format_shortest_opt
 .text._ZN4core3num7flt2dec8strategy5grisu15format_shortest17h196a2cb9b24df22dE
                0x000000004000efec       0x7c bin/obj/rslib.a(core-9bc28a7f9131c3bd.core.d226853cd57cf678-cgu.0.rcgu.o)
                0x000000004000efec                core::num::flt2dec::strategy::grisu::format_shortest
 .text._ZN4core3num7flt2dec8strategy5grisu16format_exact_opt17hda1eb93170edd273E
                0x000000004000f068      0x384 bin/obj/rslib.a(core-9bc28a7f9131c3bd.core.d226853cd57cf678-cgu.0.rcgu.o)
                0x000000004000f068                core::num::flt2dec::strategy::grisu::format_exact_opt
 .text._ZN4core3num7flt2dec8strategy5grisu16format_exact_opt14possibly_round17h6f4836bc1d8795f1E
                0x000000004000f3ec      0x1fc bin/obj/rslib.a(core-9bc28a7f9131c3bd.core.d226853cd57cf678-cgu.0.rcgu.o)
 .text._ZN4core3num7flt2dec8strategy5grisu12format_exact17h7cdc457c17b032e7E
                0x000000004000f5e8       0x90 bin/obj/rslib.a(core-9bc28a7f9131c3bd.core.d226853cd57cf678-cgu.0.rcgu.o)
                0x000000004000f5e8                core::num::flt2dec::strategy::grisu::format_exact
 .text._ZN4core3num7flt2dec8round_up17hda0625987046ce83E
                0x000000004000f678       0xbc bin/obj/rslib.a(core-9bc28a7f9131c3bd.core.d226853cd57cf678-cgu.0.rcgu.o)
                0x000000004000f678                core::num::flt2dec::round_up
 .text._ZN4core3num7flt2dec17digits_to_dec_str17h7fcf97d9ea33742bE
                0x000000004000f734      0x168 bin/obj/rslib.a(core-9bc28a7f9131c3bd.core.d226853cd57cf678-cgu.0.rcgu.o)
                0x000000004000f734                core::num::flt2dec::digits_to_dec_str
 .text._ZN4core3num7flt2dec17digits_to_exp_str17h8fc96d380e57781dE
                0x000000004000f89c      0x168 bin/obj/rslib.a(core-9bc28a7f9131c3bd.core.d226853cd57cf678-cgu.0.rcgu.o)
                0x000000004000f89c                core::num::flt2dec::digits_to_exp_str
 .text._ZN4core3num3fmt4Part5write17hc88d48034308cf44E
                0x000000004000fa04      0x19c bin/obj/rslib.a(core-9bc28a7f9131c3bd.core.d226853cd57cf678-cgu.0.rcgu.o)
                0x000000004000fa04                core::num::fmt::Part::write
 .text._ZN4core3num3fmt9Formatted3len17hbe3d360a34d7e93dE
                0x000000004000fba0       0x94 bin/obj/rslib.a(core-9bc28a7f9131c3bd.core.d226853cd57cf678-cgu.0.rcgu.o)
                0x000000004000fba0                core::num::fmt::Formatted::len
 .text._ZN4core3num3fmt9Formatted5write17he64ac26e600559a4E
                0x000000004000fc34       0xbc bin/obj/rslib.a(core-9bc28a7f9131c3bd.core.d226853cd57cf678-cgu.0.rcgu.o)
                0x000000004000fc34                core::num::fmt::Formatted::write
 .text._ZN72_$LT$core..num..error..TryFromIntError$u20$as$u20$core..fmt..Display$GT$3fmt17h05fbaff2600b8487E
                0x000000004000fcf0       0x14 bin/obj/rslib.a(core-9bc28a7f9131c3bd.core.d226853cd57cf678-cgu.0.rcgu.o)
                0x000000004000fcf0                <core::num::error::TryFromIntError as core::fmt::Display>::fmt
 .text._ZN70_$LT$core..num..error..ParseIntError$u20$as$u20$core..fmt..Display$GT$3fmt17hc12b04f0a82537ffE
                0x000000004000fd04       0x28 bin/obj/rslib.a(core-9bc28a7f9131c3bd.core.d226853cd57cf678-cgu.0.rcgu.o)
                0x000000004000fd04                <core::num::error::ParseIntError as core::fmt::Display>::fmt
 .text.unlikely._ZN4core3num9int_log1030panic_for_nonpositive_argument17h77476f76d1302d4cE
                0x000000004000fd2c       0x34 bin/obj/rslib.a(core-9bc28a7f9131c3bd.core.d226853cd57cf678-cgu.0.rcgu.o)
                0x000000004000fd2c                core::num::int_log10::panic_for_nonpositive_argument
 .text.unlikely._ZN4core3num8int_sqrt27panic_for_negative_argument17h73425c538236248aE
                0x000000004000fd60       0x34 bin/obj/rslib.a(core-9bc28a7f9131c3bd.core.d226853cd57cf678-cgu.0.rcgu.o)
                0x000000004000fd60                core::num::int_sqrt::panic_for_negative_argument
 .text.unlikely._ZN4core3num14overflow_panic3add17h9e04a06944073695E
                0x000000004000fd94       0x34 bin/obj/rslib.a(core-9bc28a7f9131c3bd.core.d226853cd57cf678-cgu.0.rcgu.o)
                0x000000004000fd94                core::num::overflow_panic::add
 .text.unlikely._ZN4core3num14overflow_panic3sub17hbe1f456644e1122eE
                0x000000004000fdc8       0x34 bin/obj/rslib.a(core-9bc28a7f9131c3bd.core.d226853cd57cf678-cgu.0.rcgu.o)
                0x000000004000fdc8                core::num::overflow_panic::sub
 .text.unlikely._ZN4core3num14overflow_panic3mul17h714a566ba3aacf58E
                0x000000004000fdfc       0x34 bin/obj/rslib.a(core-9bc28a7f9131c3bd.core.d226853cd57cf678-cgu.0.rcgu.o)
                0x000000004000fdfc                core::num::overflow_panic::mul
 .text.unlikely._ZN4core3num14overflow_panic3div17h1dc8d59141309e20E
                0x000000004000fe30       0x34 bin/obj/rslib.a(core-9bc28a7f9131c3bd.core.d226853cd57cf678-cgu.0.rcgu.o)
                0x000000004000fe30                core::num::overflow_panic::div
 .text.unlikely._ZN4core3num14overflow_panic3rem17he68f7716df2e05a6E
                0x000000004000fe64       0x34 bin/obj/rslib.a(core-9bc28a7f9131c3bd.core.d226853cd57cf678-cgu.0.rcgu.o)
                0x000000004000fe64                core::num::overflow_panic::rem
 .text.unlikely._ZN4core3num14overflow_panic3neg17hc858b22bec1cd138E
                0x000000004000fe98       0x34 bin/obj/rslib.a(core-9bc28a7f9131c3bd.core.d226853cd57cf678-cgu.0.rcgu.o)
                0x000000004000fe98                core::num::overflow_panic::neg
 .text.unlikely._ZN4core3num14overflow_panic3shr17h3b046bd4a438a78bE
                0x000000004000fecc       0x34 bin/obj/rslib.a(core-9bc28a7f9131c3bd.core.d226853cd57cf678-cgu.0.rcgu.o)
                0x000000004000fecc                core::num::overflow_panic::shr
 .text.unlikely._ZN4core3num14overflow_panic3shl17hd7f93c0153906b81E
                0x000000004000ff00       0x34 bin/obj/rslib.a(core-9bc28a7f9131c3bd.core.d226853cd57cf678-cgu.0.rcgu.o)
                0x000000004000ff00                core::num::overflow_panic::shl
 .text.unlikely._ZN4core3num22from_ascii_radix_panic17h75a0319df69b5bf4E
                0x000000004000ff34        0xc bin/obj/rslib.a(core-9bc28a7f9131c3bd.core.d226853cd57cf678-cgu.0.rcgu.o)
                0x000000004000ff34                core::num::from_ascii_radix_panic
 .text._ZN76_$LT$core..mem..transmutability..Assume$u20$as$u20$core..ops..arith..Sub$GT$3sub17h95b0bc8048918af4E
                0x000000004000ff40        0xc bin/obj/rslib.a(core-9bc28a7f9131c3bd.core.d226853cd57cf678-cgu.0.rcgu.o)
                0x000000004000ff40                <core::mem::transmutability::Assume as core::ops::arith::Sub>::sub
 .text._ZN68_$LT$core..ptr..alignment..Alignment$u20$as$u20$core..fmt..Debug$GT$3fmt17haef888746397348cE
                0x000000004000ff4c       0x78 bin/obj/rslib.a(core-9bc28a7f9131c3bd.core.d226853cd57cf678-cgu.0.rcgu.o)
                0x000000004000ff4c                <core::ptr::alignment::Alignment as core::fmt::Debug>::fmt
 .text._ZN69_$LT$core..ffi..c_str..CStr$u20$as$u20$core..clone..CloneToUninit$GT$15clone_to_uninit17hdc9b51ad353bbbd3E
                0x000000004000ffc4       0x14 bin/obj/rslib.a(core-9bc28a7f9131c3bd.core.d226853cd57cf678-cgu.0.rcgu.o)
                0x000000004000ffc4                <core::ffi::c_str::CStr as core::clone::CloneToUninit>::clone_to_uninit
 .text._ZN57_$LT$core..error..Request$u20$as$u20$core..fmt..Debug$GT$3fmt17h78c96cd962131156E
                0x000000004000ffd8       0x60 bin/obj/rslib.a(core-9bc28a7f9131c3bd.core.d226853cd57cf678-cgu.0.rcgu.o)
                0x000000004000ffd8                <core::error::Request as core::fmt::Debug>::fmt
 .text._ZN78_$LT$core..error..Source$u20$as$u20$core..iter..traits..iterator..Iterator$GT$4next17hdce954c5148767e6E
                0x0000000040010038       0x50 bin/obj/rslib.a(core-9bc28a7f9131c3bd.core.d226853cd57cf678-cgu.0.rcgu.o)
                0x0000000040010038                <core::error::Source as core::iter::traits::iterator::Iterator>::next
 .text._ZN64_$LT$core..ops..range..RangeFull$u20$as$u20$core..fmt..Debug$GT$3fmt17h4320bcca462a4463E
                0x0000000040010088       0x1c bin/obj/rslib.a(core-9bc28a7f9131c3bd.core.d226853cd57cf678-cgu.0.rcgu.o)
                0x0000000040010088                <core::ops::range::RangeFull as core::fmt::Debug>::fmt
 .text._ZN71_$LT$core..ops..range..Range$LT$Idx$GT$$u20$as$u20$core..fmt..Debug$GT$3fmt17hda0b96faa9a26247E
                0x00000000400100a4      0x21c bin/obj/rslib.a(core-9bc28a7f9131c3bd.core.d226853cd57cf678-cgu.0.rcgu.o)
 .text._ZN105_$LT$dyn$u20$core..any..Any$u2b$core..marker..Send$u2b$core..marker..Sync$u20$as$u20$core..fmt..Debug$GT$3fmt17h3b5b4b639d9ab734E
                0x00000000400102c0       0x60 bin/obj/rslib.a(core-9bc28a7f9131c3bd.core.d226853cd57cf678-cgu.0.rcgu.o)
                0x00000000400102c0                <dyn core::any::Any as core::fmt::Debug>::fmt
                0x00000000400102c0                <dyn core::any::Any+core::marker::Send+core::marker::Sync as core::fmt::Debug>::fmt
                0x00000000400102c0                <dyn core::any::Any+core::marker::Send as core::fmt::Debug>::fmt
 .text._ZN54_$LT$core..any..TypeId$u20$as$u20$core..fmt..Debug$GT$3fmt17hb79a6ba20a1edea7E
                0x0000000040010320       0x64 bin/obj/rslib.a(core-9bc28a7f9131c3bd.core.d226853cd57cf678-cgu.0.rcgu.o)
                0x0000000040010320                <core::any::TypeId as core::fmt::Debug>::fmt
 .text._ZN73_$LT$core..ascii..ascii_char..AsciiChar$u20$as$u20$core..fmt..Display$GT$3fmt17h51d9d7b1a9efbd3eE
                0x0000000040010384       0x14 bin/obj/rslib.a(core-9bc28a7f9131c3bd.core.d226853cd57cf678-cgu.0.rcgu.o)
                0x0000000040010384                <core::ascii::ascii_char::AsciiChar as core::fmt::Display>::fmt
 .text._ZN71_$LT$core..ascii..ascii_char..AsciiChar$u20$as$u20$core..fmt..Debug$GT$3fmt17h23d33dd08c0a85e0E
                0x0000000040010398      0x158 bin/obj/rslib.a(core-9bc28a7f9131c3bd.core.d226853cd57cf678-cgu.0.rcgu.o)
                0x0000000040010398                <core::ascii::ascii_char::AsciiChar as core::fmt::Debug>::fmt
 .text._ZN4core5ascii14escape_default17h2e47cd0e281f1f16E
                0x00000000400104f0       0x74 bin/obj/rslib.a(core-9bc28a7f9131c3bd.core.d226853cd57cf678-cgu.0.rcgu.o)
                0x00000000400104f0                core::ascii::escape_default
 .text._ZN65_$LT$core..ascii..EscapeDefault$u20$as$u20$core..fmt..Display$GT$3fmt17hfad744a69dbf49aeE
                0x0000000040010564       0x20 bin/obj/rslib.a(core-9bc28a7f9131c3bd.core.d226853cd57cf678-cgu.0.rcgu.o)
                0x0000000040010564                <core::ascii::EscapeDefault as core::fmt::Display>::fmt
 .text._ZN63_$LT$core..ascii..EscapeDefault$u20$as$u20$core..fmt..Debug$GT$3fmt17he7c76f4398dcabfeE
                0x0000000040010584       0x60 bin/obj/rslib.a(core-9bc28a7f9131c3bd.core.d226853cd57cf678-cgu.0.rcgu.o)
                0x0000000040010584                <core::ascii::EscapeDefault as core::fmt::Debug>::fmt
 .text._ZN56_$LT$core..bstr..ByteStr$u20$as$u20$core..fmt..Debug$GT$3fmt17h5a7de1d4bb1416c6E
                0x00000000400105e4      0x2b0 bin/obj/rslib.a(core-9bc28a7f9131c3bd.core.d226853cd57cf678-cgu.0.rcgu.o)
                0x00000000400105e4                <core::bstr::ByteStr as core::fmt::Debug>::fmt
 .text._ZN58_$LT$core..bstr..ByteStr$u20$as$u20$core..fmt..Display$GT$3fmt17h6a2ae704564f9b96E
                0x0000000040010894      0x514 bin/obj/rslib.a(core-9bc28a7f9131c3bd.core.d226853cd57cf678-cgu.0.rcgu.o)
                0x0000000040010894                <core::bstr::ByteStr as core::fmt::Display>::fmt
 .text.unlikely._ZN4core4cell4lazy14panic_poisoned17h08b119a3f048eb5cE
                0x0000000040010da8       0x38 bin/obj/rslib.a(core-9bc28a7f9131c3bd.core.d226853cd57cf678-cgu.0.rcgu.o)
                0x0000000040010da8                core::cell::lazy::panic_poisoned
 .text._ZN62_$LT$core..cell..BorrowError$u20$as$u20$core..fmt..Display$GT$3fmt17hd39d15cf420fd15fE
                0x0000000040010de0       0x14 bin/obj/rslib.a(core-9bc28a7f9131c3bd.core.d226853cd57cf678-cgu.0.rcgu.o)
                0x0000000040010de0                <core::cell::BorrowError as core::fmt::Display>::fmt
 .text._ZN65_$LT$core..cell..BorrowMutError$u20$as$u20$core..fmt..Display$GT$3fmt17he44ddc8acedfc9cdE
                0x0000000040010df4       0x14 bin/obj/rslib.a(core-9bc28a7f9131c3bd.core.d226853cd57cf678-cgu.0.rcgu.o)
                0x0000000040010df4                <core::cell::BorrowMutError as core::fmt::Display>::fmt
 .text.unlikely._ZN4core4cell22panic_already_borrowed17h0c316df386ff956aE
                0x0000000040010e08       0x44 bin/obj/rslib.a(core-9bc28a7f9131c3bd.core.d226853cd57cf678-cgu.0.rcgu.o)
                0x0000000040010e08                core::cell::panic_already_borrowed
 .text.unlikely._ZN4core4cell30panic_already_mutably_borrowed17hb8c7155d1b59c5c1E
                0x0000000040010e4c       0x44 bin/obj/rslib.a(core-9bc28a7f9131c3bd.core.d226853cd57cf678-cgu.0.rcgu.o)
                0x0000000040010e4c                core::cell::panic_already_mutably_borrowed
 .text._ZN74_$LT$core..char..convert..ParseCharError$u20$as$u20$core..fmt..Display$GT$3fmt17hd7cbd9755c2ae5fcE
                0x0000000040010e90       0x30 bin/obj/rslib.a(core-9bc28a7f9131c3bd.core.d226853cd57cf678-cgu.0.rcgu.o)
                0x0000000040010e90                <core::char::convert::ParseCharError as core::fmt::Display>::fmt
 .text._ZN76_$LT$core..char..convert..CharTryFromError$u20$as$u20$core..fmt..Display$GT$3fmt17h1c891bae60ab8133E
                0x0000000040010ec0       0x14 bin/obj/rslib.a(core-9bc28a7f9131c3bd.core.d226853cd57cf678-cgu.0.rcgu.o)
                0x0000000040010ec0                <core::char::convert::CharTryFromError as core::fmt::Display>::fmt
 .text._ZN75_$LT$core..char..decode..DecodeUtf16Error$u20$as$u20$core..fmt..Display$GT$3fmt17h2f3f0b5018587072E
                0x0000000040010ed4       0x4c bin/obj/rslib.a(core-9bc28a7f9131c3bd.core.d226853cd57cf678-cgu.0.rcgu.o)
                0x0000000040010ed4                <core::char::decode::DecodeUtf16Error as core::fmt::Display>::fmt
 .text._ZN4core4char7methods22_$LT$impl$u20$char$GT$16escape_debug_ext17h805c355e72a84d22E
                0x0000000040010f20      0x2d0 bin/obj/rslib.a(core-9bc28a7f9131c3bd.core.d226853cd57cf678-cgu.0.rcgu.o)
 .text._ZN64_$LT$core..char..EscapeUnicode$u20$as$u20$core..fmt..Display$GT$3fmt17hbf7841dda7a78611E
                0x00000000400111f0       0x20 bin/obj/rslib.a(core-9bc28a7f9131c3bd.core.d226853cd57cf678-cgu.0.rcgu.o)
                0x00000000400111f0                <core::char::EscapeUnicode as core::fmt::Display>::fmt
 .text._ZN62_$LT$core..char..EscapeDebug$u20$as$u20$core..fmt..Display$GT$3fmt17h2c206438b598efeaE
                0x0000000040011210       0x38 bin/obj/rslib.a(core-9bc28a7f9131c3bd.core.d226853cd57cf678-cgu.0.rcgu.o)
 .text._ZN86_$LT$core..char..CaseMappingIter$u20$as$u20$core..iter..traits..iterator..Iterator$GT$4next17h8ccb93e6146cbe59E
                0x0000000040011248       0x2c bin/obj/rslib.a(core-9bc28a7f9131c3bd.core.d226853cd57cf678-cgu.0.rcgu.o)
                0x0000000040011248                <core::char::CaseMappingIter as core::iter::traits::iterator::Iterator>::next
 .text._ZN86_$LT$core..char..CaseMappingIter$u20$as$u20$core..iter..traits..iterator..Iterator$GT$5count17h24ad73a1e02aeae1E
                0x0000000040011274        0xc bin/obj/rslib.a(core-9bc28a7f9131c3bd.core.d226853cd57cf678-cgu.0.rcgu.o)
                0x0000000040011274                <core::char::CaseMappingIter as core::iter::traits::iterator::Iterator>::count
 .text._ZN86_$LT$core..char..CaseMappingIter$u20$as$u20$core..iter..traits..iterator..Iterator$GT$4last17he31c1699d051b3d7E
                0x0000000040011280       0x44 bin/obj/rslib.a(core-9bc28a7f9131c3bd.core.d226853cd57cf678-cgu.0.rcgu.o)
                0x0000000040011280                <core::char::CaseMappingIter as core::iter::traits::iterator::Iterator>::last
 .text._ZN86_$LT$core..char..CaseMappingIter$u20$as$u20$core..iter..traits..iterator..Iterator$GT$10advance_by17h8d3f32eef00561a6E
                0x00000000400112c4       0x24 bin/obj/rslib.a(core-9bc28a7f9131c3bd.core.d226853cd57cf678-cgu.0.rcgu.o)
                0x00000000400112c4                <core::char::CaseMappingIter as core::iter::traits::iterator::Iterator>::advance_by
 .text._ZN86_$LT$core..char..CaseMappingIter$u20$as$u20$core..iter..traits..iterator..Iterator$GT$24__iterator_get_unchecked17hf62f4ef2db1c7883E
                0x00000000400112e8       0x14 bin/obj/rslib.a(core-9bc28a7f9131c3bd.core.d226853cd57cf678-cgu.0.rcgu.o)
                0x00000000400112e8                <core::char::CaseMappingIter as core::iter::traits::iterator::Iterator>::__iterator_get_unchecked
 .text._ZN101_$LT$core..char..CaseMappingIter$u20$as$u20$core..iter..traits..double_ended..DoubleEndedIterator$GT$9next_back17h7823f12a437908dfE
                0x00000000400112fc       0x28 bin/obj/rslib.a(core-9bc28a7f9131c3bd.core.d226853cd57cf678-cgu.0.rcgu.o)
                0x00000000400112fc                <core::char::CaseMappingIter as core::iter::traits::double_ended::DoubleEndedIterator>::next_back
 .text._ZN101_$LT$core..char..CaseMappingIter$u20$as$u20$core..iter..traits..double_ended..DoubleEndedIterator$GT$15advance_back_by17h017e2bf6557cea32E
                0x0000000040011324       0x28 bin/obj/rslib.a(core-9bc28a7f9131c3bd.core.d226853cd57cf678-cgu.0.rcgu.o)
                0x0000000040011324                <core::char::CaseMappingIter as core::iter::traits::double_ended::DoubleEndedIterator>::advance_back_by
 .text._ZN67_$LT$core..char..TryFromCharError$u20$as$u20$core..fmt..Display$GT$3fmt17h79312bb879fcde6bE
                0x000000004001134c       0x14 bin/obj/rslib.a(core-9bc28a7f9131c3bd.core.d226853cd57cf678-cgu.0.rcgu.o)
                0x000000004001134c                <core::char::TryFromCharError as core::fmt::Display>::fmt
 .text._ZN79_$LT$core..ffi..c_str..FromBytesUntilNulError$u20$as$u20$core..fmt..Display$GT$3fmt17he9e76bd265079156E
                0x0000000040011360       0x1c bin/obj/rslib.a(core-9bc28a7f9131c3bd.core.d226853cd57cf678-cgu.0.rcgu.o)
                0x0000000040011360                <core::ffi::c_str::FromBytesUntilNulError as core::fmt::Display>::fmt
 .text._ZN59_$LT$core..ffi..c_str..CStr$u20$as$u20$core..fmt..Debug$GT$3fmt17h6b3538bfa94be212E
                0x000000004001137c        0x8 bin/obj/rslib.a(core-9bc28a7f9131c3bd.core.d226853cd57cf678-cgu.0.rcgu.o)
                0x000000004001137c                <core::ffi::c_str::CStr as core::fmt::Debug>::fmt
 .text._ZN78_$LT$core..ffi..c_str..FromBytesWithNulError$u20$as$u20$core..fmt..Display$GT$3fmt17h5084d2eaf17653ebE
                0x0000000040011384       0xd8 bin/obj/rslib.a(core-9bc28a7f9131c3bd.core.d226853cd57cf678-cgu.0.rcgu.o)
                0x0000000040011384                <core::ffi::c_str::FromBytesWithNulError as core::fmt::Display>::fmt
 .text._ZN4core3ffi5c_str4CStr20from_bytes_until_nul17h2f5288cb894cafb4E
                0x000000004001145c       0xfc bin/obj/rslib.a(core-9bc28a7f9131c3bd.core.d226853cd57cf678-cgu.0.rcgu.o)
                0x000000004001145c                core::ffi::c_str::CStr::from_bytes_until_nul
 .text._ZN4core3ffi5c_str4CStr19from_bytes_with_nul17had8b5103a9b6c1a9E
                0x0000000040011558      0x114 bin/obj/rslib.a(core-9bc28a7f9131c3bd.core.d226853cd57cf678-cgu.0.rcgu.o)
                0x0000000040011558                core::ffi::c_str::CStr::from_bytes_with_nul
 .text._ZN4core3ffi5c_str4CStr6to_str17ha7c8bb4beea702b9E
                0x000000004001166c        0x8 bin/obj/rslib.a(core-9bc28a7f9131c3bd.core.d226853cd57cf678-cgu.0.rcgu.o)
                0x000000004001166c                core::ffi::c_str::CStr::to_str
 .text._ZN54_$LT$core..ffi..c_void$u20$as$u20$core..fmt..Debug$GT$3fmt17h3d6b9af31054922dE
                0x0000000040011674       0x1c bin/obj/rslib.a(core-9bc28a7f9131c3bd.core.d226853cd57cf678-cgu.0.rcgu.o)
                0x0000000040011674                <core::ffi::c_void as core::fmt::Debug>::fmt
 .text._ZN72_$LT$core..io..borrowed_buf..BorrowedBuf$u20$as$u20$core..fmt..Debug$GT$3fmt17h5d8cfc2026e791c2E
                0x0000000040011690      0x108 bin/obj/rslib.a(core-9bc28a7f9131c3bd.core.d226853cd57cf678-cgu.0.rcgu.o)
                0x0000000040011690                <core::io::borrowed_buf::BorrowedBuf as core::fmt::Debug>::fmt
 .text._ZN86_$LT$core..net..display_buffer..DisplayBuffer$LT$_$GT$$u20$as$u20$core..fmt..Write$GT$9write_str17h7cb87aabbe2da0a8E
                0x0000000040011798       0x50 bin/obj/rslib.a(core-9bc28a7f9131c3bd.core.d226853cd57cf678-cgu.0.rcgu.o)
 .text._ZN86_$LT$core..net..display_buffer..DisplayBuffer$LT$_$GT$$u20$as$u20$core..fmt..Write$GT$9write_str17h9e6e0495af978fa6E
                0x00000000400117e8       0x50 bin/obj/rslib.a(core-9bc28a7f9131c3bd.core.d226853cd57cf678-cgu.0.rcgu.o)
 .text._ZN86_$LT$core..net..display_buffer..DisplayBuffer$LT$_$GT$$u20$as$u20$core..fmt..Write$GT$9write_str17hac6ee2067672445bE
                0x0000000040011838       0x50 bin/obj/rslib.a(core-9bc28a7f9131c3bd.core.d226853cd57cf678-cgu.0.rcgu.o)
 .text._ZN86_$LT$core..net..display_buffer..DisplayBuffer$LT$_$GT$$u20$as$u20$core..fmt..Write$GT$9write_str17hf0f3b2a287ec8c04E
                0x0000000040011888       0x50 bin/obj/rslib.a(core-9bc28a7f9131c3bd.core.d226853cd57cf678-cgu.0.rcgu.o)
 .text._ZN65_$LT$core..net..ip_addr..IpAddr$u20$as$u20$core..fmt..Display$GT$3fmt17ha099c0cfe6646a1dE
                0x00000000400118d8       0x14 bin/obj/rslib.a(core-9bc28a7f9131c3bd.core.d226853cd57cf678-cgu.0.rcgu.o)
                0x00000000400118d8                <core::net::ip_addr::IpAddr as core::fmt::Display>::fmt
 .text._ZN63_$LT$core..net..ip_addr..IpAddr$u20$as$u20$core..fmt..Debug$GT$3fmt17hf5183bca058806ddE
                0x00000000400118ec       0x14 bin/obj/rslib.a(core-9bc28a7f9131c3bd.core.d226853cd57cf678-cgu.0.rcgu.o)
                0x00000000400118ec                <core::net::ip_addr::IpAddr as core::fmt::Debug>::fmt
 .text._ZN67_$LT$core..net..ip_addr..Ipv4Addr$u20$as$u20$core..fmt..Display$GT$3fmt17hbd7b49f847cb0ab5E
                0x0000000040011900      0x170 bin/obj/rslib.a(core-9bc28a7f9131c3bd.core.d226853cd57cf678-cgu.0.rcgu.o)
                0x0000000040011900                <core::net::ip_addr::Ipv4Addr as core::fmt::Display>::fmt
 .text._ZN65_$LT$core..net..ip_addr..Ipv4Addr$u20$as$u20$core..fmt..Debug$GT$3fmt17hf3e6f0369743e83cE
                0x0000000040011a70        0x4 bin/obj/rslib.a(core-9bc28a7f9131c3bd.core.d226853cd57cf678-cgu.0.rcgu.o)
                0x0000000040011a70                <core::net::ip_addr::Ipv4Addr as core::fmt::Debug>::fmt
 .text._ZN67_$LT$core..net..ip_addr..Ipv6Addr$u20$as$u20$core..fmt..Display$GT$3fmt17h4bf22b80be2cbe0fE
                0x0000000040011a74      0x718 bin/obj/rslib.a(core-9bc28a7f9131c3bd.core.d226853cd57cf678-cgu.0.rcgu.o)
                0x0000000040011a74                <core::net::ip_addr::Ipv6Addr as core::fmt::Display>::fmt
 .text._ZN67_$LT$core..net..ip_addr..Ipv6Addr$u20$as$u20$core..fmt..Display$GT$3fmt12fmt_subslice17h5acb96e1b9d1ffffE
                0x000000004001218c      0x104 bin/obj/rslib.a(core-9bc28a7f9131c3bd.core.d226853cd57cf678-cgu.0.rcgu.o)
 .text._ZN65_$LT$core..net..ip_addr..Ipv6Addr$u20$as$u20$core..fmt..Debug$GT$3fmt17h18a2fb7280b63654E
                0x0000000040012290        0x4 bin/obj/rslib.a(core-9bc28a7f9131c3bd.core.d226853cd57cf678-cgu.0.rcgu.o)
                0x0000000040012290                <core::net::ip_addr::Ipv6Addr as core::fmt::Debug>::fmt
 .text._ZN4core3net6parser6Parser11read_number28_$u7b$$u7b$closure$u7d$$u7d$17h376f3257fac7f88fE
                0x0000000040012294      0x2a8 bin/obj/rslib.a(core-9bc28a7f9131c3bd.core.d226853cd57cf678-cgu.0.rcgu.o)
 .text._ZN4core3net6parser6Parser14read_ipv4_addr17h3ef02a9a82124c89E
                0x000000004001253c      0x2c8 bin/obj/rslib.a(core-9bc28a7f9131c3bd.core.d226853cd57cf678-cgu.0.rcgu.o)
 .text._ZN4core3net6parser6Parser14read_ipv6_addr17h68090c8579280fe4E
                0x0000000040012804      0x1cc bin/obj/rslib.a(core-9bc28a7f9131c3bd.core.d226853cd57cf678-cgu.0.rcgu.o)
 .text._ZN4core3net6parser6Parser14read_ipv6_addr11read_groups17h3eb8a7eb9ab156deE
                0x00000000400129d0      0x1d0 bin/obj/rslib.a(core-9bc28a7f9131c3bd.core.d226853cd57cf678-cgu.0.rcgu.o)
 .text._ZN4core3net6parser6Parser19read_socket_addr_v617hf9db6fd35c12970bE
                0x0000000040012ba0      0x25c bin/obj/rslib.a(core-9bc28a7f9131c3bd.core.d226853cd57cf678-cgu.0.rcgu.o)
 .text._ZN4core3net6parser44_$LT$impl$u20$core..net..ip_addr..IpAddr$GT$11parse_ascii17h1f2a43004f9c5ec4E
                0x0000000040012dfc      0x164 bin/obj/rslib.a(core-9bc28a7f9131c3bd.core.d226853cd57cf678-cgu.0.rcgu.o)
                0x0000000040012dfc                core::net::parser::<impl core::net::ip_addr::IpAddr>::parse_ascii
 .text._ZN4core3net6parser83_$LT$impl$u20$core..str..traits..FromStr$u20$for$u20$core..net..ip_addr..IpAddr$GT$8from_str17h7fa43c1e9703f987E
                0x0000000040012f60      0x164 bin/obj/rslib.a(core-9bc28a7f9131c3bd.core.d226853cd57cf678-cgu.0.rcgu.o)
                0x0000000040012f60                core::net::parser::<impl core::str::traits::FromStr for core::net::ip_addr::IpAddr>::from_str
 .text._ZN4core3net6parser46_$LT$impl$u20$core..net..ip_addr..Ipv4Addr$GT$11parse_ascii17h8c4d78b746d8b8a9E
                0x00000000400130c4       0x7c bin/obj/rslib.a(core-9bc28a7f9131c3bd.core.d226853cd57cf678-cgu.0.rcgu.o)
                0x00000000400130c4                core::net::parser::<impl core::net::ip_addr::Ipv4Addr>::parse_ascii
 .text._ZN4core3net6parser85_$LT$impl$u20$core..str..traits..FromStr$u20$for$u20$core..net..ip_addr..Ipv4Addr$GT$8from_str17h57df2271314bedc3E
                0x0000000040013140       0x7c bin/obj/rslib.a(core-9bc28a7f9131c3bd.core.d226853cd57cf678-cgu.0.rcgu.o)
                0x0000000040013140                core::net::parser::<impl core::str::traits::FromStr for core::net::ip_addr::Ipv4Addr>::from_str
 .text._ZN4core3net6parser46_$LT$impl$u20$core..net..ip_addr..Ipv6Addr$GT$11parse_ascii17h065ae678081927e2E
                0x00000000400131bc       0x9c bin/obj/rslib.a(core-9bc28a7f9131c3bd.core.d226853cd57cf678-cgu.0.rcgu.o)
                0x00000000400131bc                core::net::parser::<impl core::net::ip_addr::Ipv6Addr>::parse_ascii
 .text._ZN4core3net6parser85_$LT$impl$u20$core..str..traits..FromStr$u20$for$u20$core..net..ip_addr..Ipv6Addr$GT$8from_str17hc2e68dfa798b6c60E
                0x0000000040013258       0x9c bin/obj/rslib.a(core-9bc28a7f9131c3bd.core.d226853cd57cf678-cgu.0.rcgu.o)
                0x0000000040013258                core::net::parser::<impl core::str::traits::FromStr for core::net::ip_addr::Ipv6Addr>::from_str
 .text._ZN4core3net6parser54_$LT$impl$u20$core..net..socket_addr..SocketAddrV4$GT$11parse_ascii17h92cbc127f1420788E
                0x00000000400132f4      0x11c bin/obj/rslib.a(core-9bc28a7f9131c3bd.core.d226853cd57cf678-cgu.0.rcgu.o)
                0x00000000400132f4                core::net::parser::<impl core::net::socket_addr::SocketAddrV4>::parse_ascii
 .text._ZN4core3net6parser93_$LT$impl$u20$core..str..traits..FromStr$u20$for$u20$core..net..socket_addr..SocketAddrV4$GT$8from_str17hb8b8abae36b04d2cE
                0x0000000040013410      0x118 bin/obj/rslib.a(core-9bc28a7f9131c3bd.core.d226853cd57cf678-cgu.0.rcgu.o)
                0x0000000040013410                core::net::parser::<impl core::str::traits::FromStr for core::net::socket_addr::SocketAddrV4>::from_str
 .text._ZN4core3net6parser54_$LT$impl$u20$core..net..socket_addr..SocketAddrV6$GT$11parse_ascii17h054031fb253aac66E
                0x0000000040013528       0x7c bin/obj/rslib.a(core-9bc28a7f9131c3bd.core.d226853cd57cf678-cgu.0.rcgu.o)
                0x0000000040013528                core::net::parser::<impl core::net::socket_addr::SocketAddrV6>::parse_ascii
 .text._ZN4core3net6parser93_$LT$impl$u20$core..str..traits..FromStr$u20$for$u20$core..net..socket_addr..SocketAddrV6$GT$8from_str17h7fbfac753f22af87E
                0x00000000400135a4       0x7c bin/obj/rslib.a(core-9bc28a7f9131c3bd.core.d226853cd57cf678-cgu.0.rcgu.o)
                0x00000000400135a4                core::net::parser::<impl core::str::traits::FromStr for core::net::socket_addr::SocketAddrV6>::from_str
 .text._ZN4core3net6parser52_$LT$impl$u20$core..net..socket_addr..SocketAddr$GT$11parse_ascii17h9f08c9dd873734f6E
                0x0000000040013620      0x1ac bin/obj/rslib.a(core-9bc28a7f9131c3bd.core.d226853cd57cf678-cgu.0.rcgu.o)
                0x0000000040013620                core::net::parser::<impl core::net::socket_addr::SocketAddr>::parse_ascii
 .text._ZN4core3net6parser91_$LT$impl$u20$core..str..traits..FromStr$u20$for$u20$core..net..socket_addr..SocketAddr$GT$8from_str17h8ccef824192b2892E
                0x00000000400137cc        0x4 bin/obj/rslib.a(core-9bc28a7f9131c3bd.core.d226853cd57cf678-cgu.0.rcgu.o)
                0x00000000400137cc                core::net::parser::<impl core::str::traits::FromStr for core::net::socket_addr::SocketAddr>::from_str
 .text._ZN72_$LT$core..net..parser..AddrParseError$u20$as$u20$core..fmt..Display$GT$3fmt17h86b0b6ce6dd91ce6E
                0x00000000400137d0       0x28 bin/obj/rslib.a(core-9bc28a7f9131c3bd.core.d226853cd57cf678-cgu.0.rcgu.o)
                0x00000000400137d0                <core::net::parser::AddrParseError as core::fmt::Display>::fmt
 .text._ZN73_$LT$core..net..socket_addr..SocketAddr$u20$as$u20$core..fmt..Display$GT$3fmt17hc1e8c186ac1e2d22E
                0x00000000400137f8       0x1c bin/obj/rslib.a(core-9bc28a7f9131c3bd.core.d226853cd57cf678-cgu.0.rcgu.o)
                0x00000000400137f8                <core::net::socket_addr::SocketAddr as core::fmt::Display>::fmt
 .text._ZN71_$LT$core..net..socket_addr..SocketAddr$u20$as$u20$core..fmt..Debug$GT$3fmt17hed43315cee45212fE
                0x0000000040013814       0x1c bin/obj/rslib.a(core-9bc28a7f9131c3bd.core.d226853cd57cf678-cgu.0.rcgu.o)
                0x0000000040013814                <core::net::socket_addr::SocketAddr as core::fmt::Debug>::fmt
 .text._ZN75_$LT$core..net..socket_addr..SocketAddrV4$u20$as$u20$core..fmt..Display$GT$3fmt17h09f048bff52c7e54E
                0x0000000040013830      0x150 bin/obj/rslib.a(core-9bc28a7f9131c3bd.core.d226853cd57cf678-cgu.0.rcgu.o)
                0x0000000040013830                <core::net::socket_addr::SocketAddrV4 as core::fmt::Display>::fmt
 .text._ZN73_$LT$core..net..socket_addr..SocketAddrV4$u20$as$u20$core..fmt..Debug$GT$3fmt17hefc9690eb6846316E
                0x0000000040013980        0x4 bin/obj/rslib.a(core-9bc28a7f9131c3bd.core.d226853cd57cf678-cgu.0.rcgu.o)
                0x0000000040013980                <core::net::socket_addr::SocketAddrV4 as core::fmt::Debug>::fmt
 .text._ZN75_$LT$core..net..socket_addr..SocketAddrV6$u20$as$u20$core..fmt..Display$GT$3fmt17hfb2939480984bf1dE
                0x0000000040013984      0x248 bin/obj/rslib.a(core-9bc28a7f9131c3bd.core.d226853cd57cf678-cgu.0.rcgu.o)
                0x0000000040013984                <core::net::socket_addr::SocketAddrV6 as core::fmt::Display>::fmt
 .text._ZN73_$LT$core..net..socket_addr..SocketAddrV6$u20$as$u20$core..fmt..Debug$GT$3fmt17hfe4680f1cbb91d34E
                0x0000000040013bcc        0x4 bin/obj/rslib.a(core-9bc28a7f9131c3bd.core.d226853cd57cf678-cgu.0.rcgu.o)
                0x0000000040013bcc                <core::net::socket_addr::SocketAddrV6 as core::fmt::Debug>::fmt
 .text.unlikely._ZN4core6option13unwrap_failed17ha81251c04f59d195E
                0x0000000040013bd0       0x1c bin/obj/rslib.a(core-9bc28a7f9131c3bd.core.d226853cd57cf678-cgu.0.rcgu.o)
                0x0000000040013bd0                core::option::unwrap_failed
 .text.unlikely._ZN4core6option13expect_failed17hd32d6cf3a4bf1d96E
                0x0000000040013bec       0x48 bin/obj/rslib.a(core-9bc28a7f9131c3bd.core.d226853cd57cf678-cgu.0.rcgu.o)
                0x0000000040013bec                core::option::expect_failed
 .text._ZN68_$LT$core..panic..location..Location$u20$as$u20$core..fmt..Debug$GT$3fmt17he0fd85aed8862e61E
                0x0000000040013c34      0x110 bin/obj/rslib.a(core-9bc28a7f9131c3bd.core.d226853cd57cf678-cgu.0.rcgu.o)
                0x0000000040013c34                <core::panic::location::Location as core::fmt::Debug>::fmt
 .text._ZN73_$LT$core..panic..panic_info..PanicInfo$u20$as$u20$core..fmt..Display$GT$3fmt17h5808df031e1f34aeE
                0x0000000040013d44      0x134 bin/obj/rslib.a(core-9bc28a7f9131c3bd.core.d226853cd57cf678-cgu.0.rcgu.o)
                0x0000000040013d44                <core::panic::panic_info::PanicInfo as core::fmt::Display>::fmt
 .text.unlikely._ZN4core9panicking9panic_fmt17h59c12d7bbf12008bE
                0x0000000040013e78       0x20 bin/obj/rslib.a(core-9bc28a7f9131c3bd.core.d226853cd57cf678-cgu.0.rcgu.o)
                0x0000000040013e78                core::panicking::panic_fmt
 .text.unlikely._ZN4core9panicking18panic_nounwind_fmt17h43d790f68ff1e4a4E
                0x0000000040013e98       0x44 bin/obj/rslib.a(core-9bc28a7f9131c3bd.core.d226853cd57cf678-cgu.0.rcgu.o)
                0x0000000040013e98                core::panicking::panic_nounwind_fmt
 .text.unlikely._ZN4core9panicking5panic17h8ee0369f01486facE
                0x0000000040013edc       0x34 bin/obj/rslib.a(core-9bc28a7f9131c3bd.core.d226853cd57cf678-cgu.0.rcgu.o)
                0x0000000040013edc                core::panicking::panic
 .text.unlikely._ZN4core9panicking14panic_nounwind17h732209add0f70db3E
                0x0000000040013f10       0x3c bin/obj/rslib.a(core-9bc28a7f9131c3bd.core.d226853cd57cf678-cgu.0.rcgu.o)
                0x0000000040013f10                core::panicking::panic_nounwind
 .text.unlikely._ZN4core9panicking26panic_nounwind_nobacktrace17h73dd0549be049235E
                0x0000000040013f4c       0x3c bin/obj/rslib.a(core-9bc28a7f9131c3bd.core.d226853cd57cf678-cgu.0.rcgu.o)
                0x0000000040013f4c                core::panicking::panic_nounwind_nobacktrace
 .text.unlikely._ZN4core9panicking14panic_explicit17h9f5c3629a163b730E
                0x0000000040013f88       0x48 bin/obj/rslib.a(core-9bc28a7f9131c3bd.core.d226853cd57cf678-cgu.0.rcgu.o)
                0x0000000040013f88                core::panicking::panic_explicit
 .text.unlikely._ZN4core9panicking18panic_bounds_check17head8e44ed03a260fE
                0x0000000040013fd0       0x50 bin/obj/rslib.a(core-9bc28a7f9131c3bd.core.d226853cd57cf678-cgu.0.rcgu.o)
                0x0000000040013fd0                core::panicking::panic_bounds_check
 .text.unlikely._ZN4core9panicking36panic_misaligned_pointer_dereference17h668991c61ca32a1cE
                0x0000000040014020       0x58 bin/obj/rslib.a(core-9bc28a7f9131c3bd.core.d226853cd57cf678-cgu.0.rcgu.o)
                0x0000000040014020                core::panicking::panic_misaligned_pointer_dereference
 .text.unlikely._ZN4core9panicking30panic_null_pointer_dereference17h66c6810a4da7c5ecE
                0x0000000040014078       0x38 bin/obj/rslib.a(core-9bc28a7f9131c3bd.core.d226853cd57cf678-cgu.0.rcgu.o)
                0x0000000040014078                core::panicking::panic_null_pointer_dereference
 .text.unlikely._ZN4core9panicking19panic_cannot_unwind17ha3109e66db2eb33cE
                0x00000000400140b0       0x18 bin/obj/rslib.a(core-9bc28a7f9131c3bd.core.d226853cd57cf678-cgu.0.rcgu.o)
                0x00000000400140b0                core::panicking::panic_cannot_unwind
 .text.unlikely._ZN4core9panicking16panic_in_cleanup17h9f77cff3a1188b8dE
                0x00000000400140c8       0x18 bin/obj/rslib.a(core-9bc28a7f9131c3bd.core.d226853cd57cf678-cgu.0.rcgu.o)
                0x00000000400140c8                core::panicking::panic_in_cleanup
 .text.unlikely._ZN4core9panicking15const_panic_fmt17h124756fff53c4a69E
                0x00000000400140e0       0x64 bin/obj/rslib.a(core-9bc28a7f9131c3bd.core.d226853cd57cf678-cgu.0.rcgu.o)
                0x00000000400140e0                core::panicking::const_panic_fmt
 .text.unlikely._ZN4core9panicking13assert_failed17h1578fa687b85f9edE
                0x0000000040014144       0x1c bin/obj/rslib.a(core-9bc28a7f9131c3bd.core.d226853cd57cf678-cgu.0.rcgu.o)
                0x0000000040014144                core::panicking::assert_failed
 .text.unlikely._ZN4core9panicking13assert_failed17h4ad99645d14da504E
                0x0000000040014160       0x1c bin/obj/rslib.a(core-9bc28a7f9131c3bd.core.d226853cd57cf678-cgu.0.rcgu.o)
                0x0000000040014160                core::panicking::assert_failed
 .text._ZN84_$LT$core..panicking..assert_matches_failed..Pattern$u20$as$u20$core..fmt..Debug$GT$3fmt17h7d1bcdb86d2f1592E
                0x000000004001417c       0x14 bin/obj/rslib.a(core-9bc28a7f9131c3bd.core.d226853cd57cf678-cgu.0.rcgu.o)
                0x000000004001417c                <core::panicking::assert_matches_failed::Pattern as core::fmt::Debug>::fmt
 .text.unlikely._ZN4core9panicking19assert_failed_inner17h3ec2d0c2274a870cE
                0x0000000040014190       0xec bin/obj/rslib.a(core-9bc28a7f9131c3bd.core.d226853cd57cf678-cgu.0.rcgu.o)
                0x0000000040014190                core::panicking::assert_failed_inner
 .text._ZN48_$LT$char$u20$as$u20$core..pat..RangePattern$GT$7sub_one17h2990797fe0abc807E
                0x000000004001427c       0x54 bin/obj/rslib.a(core-9bc28a7f9131c3bd.core.d226853cd57cf678-cgu.0.rcgu.o)
                0x000000004001427c                <char as core::pat::RangePattern>::sub_one
 .text.unlikely._ZN4core6result13unwrap_failed17hc7bf42bcdf7cf52aE
                0x00000000400142d0       0x5c bin/obj/rslib.a(core-9bc28a7f9131c3bd.core.d226853cd57cf678-cgu.0.rcgu.o)
                0x00000000400142d0                core::result::unwrap_failed
 .text._ZN67_$LT$core..sync..atomic..AtomicBool$u20$as$u20$core..fmt..Debug$GT$3fmt17h785780f3c4703d75E
                0x000000004001432c       0x2c bin/obj/rslib.a(core-9bc28a7f9131c3bd.core.d226853cd57cf678-cgu.0.rcgu.o)
                0x000000004001432c                <core::sync::atomic::AtomicBool as core::fmt::Debug>::fmt
 .text._ZN4core3fmt8builders10PadAdapter4wrap17h5eebf7fa637ed883E
                0x0000000040014358       0x4c bin/obj/rslib.a(core-9bc28a7f9131c3bd.core.d226853cd57cf678-cgu.0.rcgu.o)
                0x0000000040014358                core::fmt::builders::PadAdapter::wrap
 .text._ZN68_$LT$core..fmt..builders..PadAdapter$u20$as$u20$core..fmt..Write$GT$9write_str17hb6e46af551676d26E
                0x00000000400143a4      0x268 bin/obj/rslib.a(core-9bc28a7f9131c3bd.core.d226853cd57cf678-cgu.0.rcgu.o)
                0x00000000400143a4                <core::fmt::builders::PadAdapter as core::fmt::Write>::write_str
 .text._ZN68_$LT$core..fmt..builders..PadAdapter$u20$as$u20$core..fmt..Write$GT$10write_char17hf3b7446aace36723E
                0x000000004001460c       0x80 bin/obj/rslib.a(core-9bc28a7f9131c3bd.core.d226853cd57cf678-cgu.0.rcgu.o)
                0x000000004001460c                <core::fmt::builders::PadAdapter as core::fmt::Write>::write_char
 .text._ZN4core3fmt8builders11DebugStruct5field17h6af7cc2ebccff4ceE
                0x000000004001468c      0x1bc bin/obj/rslib.a(core-9bc28a7f9131c3bd.core.d226853cd57cf678-cgu.0.rcgu.o)
                0x000000004001468c                core::fmt::builders::DebugStruct::field
 .text._ZN4core3fmt8builders11DebugStruct21finish_non_exhaustive17h96f08ce6c43761c6E
                0x0000000040014848       0xdc bin/obj/rslib.a(core-9bc28a7f9131c3bd.core.d226853cd57cf678-cgu.0.rcgu.o)
                0x0000000040014848                core::fmt::builders::DebugStruct::finish_non_exhaustive
 .text._ZN4core3fmt8builders11DebugStruct6finish17h4fba06c8bf4906b7E
                0x0000000040014924       0x7c bin/obj/rslib.a(core-9bc28a7f9131c3bd.core.d226853cd57cf678-cgu.0.rcgu.o)
                0x0000000040014924                core::fmt::builders::DebugStruct::finish
 .text._ZN4core3fmt8builders10DebugTuple5field17h60cebf54beee8106E
                0x00000000400149a0      0x148 bin/obj/rslib.a(core-9bc28a7f9131c3bd.core.d226853cd57cf678-cgu.0.rcgu.o)
                0x00000000400149a0                core::fmt::builders::DebugTuple::field
 .text._ZN4core3fmt8builders10DebugTuple21finish_non_exhaustive17h6f64c306b7c72ee9E
                0x0000000040014ae8       0xd8 bin/obj/rslib.a(core-9bc28a7f9131c3bd.core.d226853cd57cf678-cgu.0.rcgu.o)
                0x0000000040014ae8                core::fmt::builders::DebugTuple::finish_non_exhaustive
 .text._ZN4core3fmt8builders10DebugTuple6finish17hbb5533ad16eeb5e1E
                0x0000000040014bc0       0xb0 bin/obj/rslib.a(core-9bc28a7f9131c3bd.core.d226853cd57cf678-cgu.0.rcgu.o)
                0x0000000040014bc0                core::fmt::builders::DebugTuple::finish
 .text._ZN4core3fmt8builders8DebugSet5entry17hc4f82619b7f731baE
                0x0000000040014c70      0x144 bin/obj/rslib.a(core-9bc28a7f9131c3bd.core.d226853cd57cf678-cgu.0.rcgu.o)
                0x0000000040014c70                core::fmt::builders::DebugSet::entry
                0x0000000040014c70                core::fmt::builders::DebugList::entry
 .text._ZN4core3fmt8builders8DebugSet21finish_non_exhaustive17h67dc56552ef4fcc4E
                0x0000000040014db4       0xdc bin/obj/rslib.a(core-9bc28a7f9131c3bd.core.d226853cd57cf678-cgu.0.rcgu.o)
                0x0000000040014db4                core::fmt::builders::DebugSet::finish_non_exhaustive
 .text._ZN4core3fmt8builders8DebugSet6finish17hb2c0dc036a0de16fE
                0x0000000040014e90       0x58 bin/obj/rslib.a(core-9bc28a7f9131c3bd.core.d226853cd57cf678-cgu.0.rcgu.o)
                0x0000000040014e90                core::fmt::builders::DebugSet::finish
 .text._ZN4core3fmt8builders9DebugList21finish_non_exhaustive17h2cde829a23765496E
                0x0000000040014ee8      0x104 bin/obj/rslib.a(core-9bc28a7f9131c3bd.core.d226853cd57cf678-cgu.0.rcgu.o)
                0x0000000040014ee8                core::fmt::builders::DebugList::finish_non_exhaustive
 .text._ZN4core3fmt8builders9DebugList6finish17h8aef6923c58387bbE
                0x0000000040014fec       0x58 bin/obj/rslib.a(core-9bc28a7f9131c3bd.core.d226853cd57cf678-cgu.0.rcgu.o)
                0x0000000040014fec                core::fmt::builders::DebugList::finish
 .text._ZN4core3fmt8builders8DebugMap5entry17h098de1a122a91595E
                0x0000000040015044      0x120 bin/obj/rslib.a(core-9bc28a7f9131c3bd.core.d226853cd57cf678-cgu.0.rcgu.o)
                0x0000000040015044                core::fmt::builders::DebugMap::entry
 .text._ZN4core3fmt8builders8DebugMap3key17h07903bc2746b5865E
                0x0000000040015164      0x1a4 bin/obj/rslib.a(core-9bc28a7f9131c3bd.core.d226853cd57cf678-cgu.0.rcgu.o)
                0x0000000040015164                core::fmt::builders::DebugMap::key
 .text._ZN4core3fmt8builders8DebugMap5value17h7c10a7a869441789E
                0x0000000040015308      0x110 bin/obj/rslib.a(core-9bc28a7f9131c3bd.core.d226853cd57cf678-cgu.0.rcgu.o)
                0x0000000040015308                core::fmt::builders::DebugMap::value
 .text._ZN4core3fmt8builders8DebugMap21finish_non_exhaustive17hd8b10cea4d9ff8adE
                0x0000000040015418      0x110 bin/obj/rslib.a(core-9bc28a7f9131c3bd.core.d226853cd57cf678-cgu.0.rcgu.o)
                0x0000000040015418                core::fmt::builders::DebugMap::finish_non_exhaustive
 .text._ZN4core3fmt8builders8DebugMap6finish17h58a5583264a108d0E
                0x0000000040015528       0x98 bin/obj/rslib.a(core-9bc28a7f9131c3bd.core.d226853cd57cf678-cgu.0.rcgu.o)
                0x0000000040015528                core::fmt::builders::DebugMap::finish
 .text._ZN4core3fmt5float29float_to_decimal_common_exact17h9020898cd84b3411E
                0x00000000400155c0      0x304 bin/obj/rslib.a(core-9bc28a7f9131c3bd.core.d226853cd57cf678-cgu.0.rcgu.o)
 .text._ZN4core3fmt5float29float_to_decimal_common_exact17hc9bb6d03934ed708E
                0x00000000400158c4      0x308 bin/obj/rslib.a(core-9bc28a7f9131c3bd.core.d226853cd57cf678-cgu.0.rcgu.o)
 .text._ZN4core3fmt5float29float_to_decimal_common_exact17hddfb439dbc36b5e5E
                0x0000000040015bcc      0x308 bin/obj/rslib.a(core-9bc28a7f9131c3bd.core.d226853cd57cf678-cgu.0.rcgu.o)
 .text._ZN4core3fmt5float32float_to_decimal_common_shortest17h45bea25343d2d3eaE
                0x0000000040015ed4      0x24c bin/obj/rslib.a(core-9bc28a7f9131c3bd.core.d226853cd57cf678-cgu.0.rcgu.o)
 .text._ZN4core3fmt5float32float_to_decimal_common_shortest17h6e3d8c493f37ad26E
                0x0000000040016120      0x24c bin/obj/rslib.a(core-9bc28a7f9131c3bd.core.d226853cd57cf678-cgu.0.rcgu.o)
 .text._ZN4core3fmt5float32float_to_decimal_common_shortest17h86aab77d6c02d2fbE
                0x000000004001636c      0x248 bin/obj/rslib.a(core-9bc28a7f9131c3bd.core.d226853cd57cf678-cgu.0.rcgu.o)
 .text._ZN4core3fmt5float33float_to_exponential_common_exact17h1a43beb607228a04E
                0x00000000400165b4      0x334 bin/obj/rslib.a(core-9bc28a7f9131c3bd.core.d226853cd57cf678-cgu.0.rcgu.o)
 .text._ZN4core3fmt5float33float_to_exponential_common_exact17h2cc19d9feaec91d7E
                0x00000000400168e8      0x330 bin/obj/rslib.a(core-9bc28a7f9131c3bd.core.d226853cd57cf678-cgu.0.rcgu.o)
 .text._ZN4core3fmt5float33float_to_exponential_common_exact17h9b09ee5386a011d7E
                0x0000000040016c18      0x334 bin/obj/rslib.a(core-9bc28a7f9131c3bd.core.d226853cd57cf678-cgu.0.rcgu.o)
 .text._ZN4core3fmt5float36float_to_exponential_common_shortest17h0c5b68c5cdb5cafdE
                0x0000000040016f4c      0x304 bin/obj/rslib.a(core-9bc28a7f9131c3bd.core.d226853cd57cf678-cgu.0.rcgu.o)
 .text._ZN4core3fmt5float36float_to_exponential_common_shortest17h0f67a8cbef0b56f4E
                0x0000000040017250      0x304 bin/obj/rslib.a(core-9bc28a7f9131c3bd.core.d226853cd57cf678-cgu.0.rcgu.o)
 .text._ZN4core3fmt5float36float_to_exponential_common_shortest17hfdd8087b6d176695E
                0x0000000040017554      0x300 bin/obj/rslib.a(core-9bc28a7f9131c3bd.core.d226853cd57cf678-cgu.0.rcgu.o)
 .text._ZN4core3fmt3num53_$LT$impl$u20$core..fmt..Display$u20$for$u20$u128$GT$3fmt17h73a3bf4b662cca51E
                0x0000000040017854       0x54 bin/obj/rslib.a(core-9bc28a7f9131c3bd.core.d226853cd57cf678-cgu.0.rcgu.o)
                0x0000000040017854                core::fmt::num::<impl core::fmt::Display for u128>::fmt
 .text._ZN4core3fmt3num53_$LT$impl$u20$core..fmt..Display$u20$for$u20$i128$GT$3fmt17h9720ba3df8f84a6bE
                0x00000000400178a8       0x68 bin/obj/rslib.a(core-9bc28a7f9131c3bd.core.d226853cd57cf678-cgu.0.rcgu.o)
                0x00000000400178a8                core::fmt::num::<impl core::fmt::Display for i128>::fmt
 .text._ZN4core3fmt3num22_$LT$impl$u20$u128$GT$4_fmt17h6eb1bb1f566cdc24E
                0x0000000040017910      0x570 bin/obj/rslib.a(core-9bc28a7f9131c3bd.core.d226853cd57cf678-cgu.0.rcgu.o)
                0x0000000040017910                core::fmt::num::<impl u128>::_fmt
 .text._ZN4core3fmt5Write10write_char17h6372f9eec1e8786aE
                0x0000000040017e80      0x144 bin/obj/rslib.a(core-9bc28a7f9131c3bd.core.d226853cd57cf678-cgu.0.rcgu.o)
 .text._ZN4core3fmt5Write10write_char17h82675e16b28e0666E
                0x0000000040017fc4      0x144 bin/obj/rslib.a(core-9bc28a7f9131c3bd.core.d226853cd57cf678-cgu.0.rcgu.o)
 .text._ZN4core3fmt5Write10write_char17hb3866b205f1b94e9E
                0x0000000040018108      0x144 bin/obj/rslib.a(core-9bc28a7f9131c3bd.core.d226853cd57cf678-cgu.0.rcgu.o)
 .text._ZN4core3fmt5Write10write_char17hd30b5327b07569b7E
                0x000000004001824c      0x144 bin/obj/rslib.a(core-9bc28a7f9131c3bd.core.d226853cd57cf678-cgu.0.rcgu.o)
 .text._ZN4core3fmt5Write9write_fmt17h1163c8e621180794E
                0x0000000040018390       0x10 bin/obj/rslib.a(core-9bc28a7f9131c3bd.core.d226853cd57cf678-cgu.0.rcgu.o)
 .text._ZN4core3fmt5Write9write_fmt17h1428de75bc116f34E
                0x00000000400183a0       0x10 bin/obj/rslib.a(core-9bc28a7f9131c3bd.core.d226853cd57cf678-cgu.0.rcgu.o)
 .text._ZN4core3fmt5Write9write_fmt17h330b6289f647854cE
                0x00000000400183b0       0x10 bin/obj/rslib.a(core-9bc28a7f9131c3bd.core.d226853cd57cf678-cgu.0.rcgu.o)
 .text._ZN4core3fmt5Write9write_fmt17ha170570fe97c486eE
                0x00000000400183c0       0x10 bin/obj/rslib.a(core-9bc28a7f9131c3bd.core.d226853cd57cf678-cgu.0.rcgu.o)
 .text._ZN4core3fmt5Write9write_fmt17heff2b669e603547dE
                0x00000000400183d0       0x10 bin/obj/rslib.a(core-9bc28a7f9131c3bd.core.d226853cd57cf678-cgu.0.rcgu.o)
 .text._ZN4core3fmt17FormattingOptions8get_fill17h16333bf23548af5bE
                0x00000000400183e0        0xc bin/obj/rslib.a(core-9bc28a7f9131c3bd.core.d226853cd57cf678-cgu.0.rcgu.o)
                0x00000000400183e0                core::fmt::FormattingOptions::get_fill
 .text._ZN57_$LT$core..fmt..Arguments$u20$as$u20$core..fmt..Debug$GT$3fmt17hf44420f7be10c257E
                0x00000000400183ec       0x10 bin/obj/rslib.a(core-9bc28a7f9131c3bd.core.d226853cd57cf678-cgu.0.rcgu.o)
                0x00000000400183ec                <core::fmt::Arguments as core::fmt::Debug>::fmt
 .text._ZN59_$LT$core..fmt..Arguments$u20$as$u20$core..fmt..Display$GT$3fmt17h0d9bb26ca97e72c0E
                0x00000000400183fc       0x10 bin/obj/rslib.a(core-9bc28a7f9131c3bd.core.d226853cd57cf678-cgu.0.rcgu.o)
                0x00000000400183fc                <core::fmt::Arguments as core::fmt::Display>::fmt
 .text._ZN4core3fmt5write17h27d27f11b784a835E
                0x000000004001840c      0x1fc bin/obj/rslib.a(core-9bc28a7f9131c3bd.core.d226853cd57cf678-cgu.0.rcgu.o)
                0x000000004001840c                core::fmt::write
 .text._ZN4core3fmt9Formatter12pad_integral17h7c8201b88e6e3ebaE
                0x0000000040018608      0x49c bin/obj/rslib.a(core-9bc28a7f9131c3bd.core.d226853cd57cf678-cgu.0.rcgu.o)
                0x0000000040018608                core::fmt::Formatter::pad_integral
 .text._ZN4core3fmt9Formatter12pad_integral12write_prefix17h57204f2c7617257bE
                0x0000000040018aa4       0x88 bin/obj/rslib.a(core-9bc28a7f9131c3bd.core.d226853cd57cf678-cgu.0.rcgu.o)
 .text._ZN4core3fmt9Formatter3pad17h73f3af08799c2a09E
                0x0000000040018b2c      0x3ec bin/obj/rslib.a(core-9bc28a7f9131c3bd.core.d226853cd57cf678-cgu.0.rcgu.o)
                0x0000000040018b2c                core::fmt::Formatter::pad
 .text._ZN4core3fmt9Formatter19pad_formatted_parts17h12df80fd2b83fceaE
                0x0000000040018f18      0x238 bin/obj/rslib.a(core-9bc28a7f9131c3bd.core.d226853cd57cf678-cgu.0.rcgu.o)
 .text._ZN4core3fmt9Formatter21write_formatted_parts17h99823bc407c75291E
                0x0000000040019150      0x228 bin/obj/rslib.a(core-9bc28a7f9131c3bd.core.d226853cd57cf678-cgu.0.rcgu.o)
 .text._ZN4core3fmt9Formatter9write_str17h8d4b7b76bb9638afE
                0x0000000040019378        0xc bin/obj/rslib.a(core-9bc28a7f9131c3bd.core.d226853cd57cf678-cgu.0.rcgu.o)
                0x0000000040019378                core::fmt::Formatter::write_str
                0x0000000040019378                <core::fmt::Formatter as core::fmt::Write>::write_str
 .text._ZN4core3fmt9Formatter4fill17hb992998a870bbadbE
                0x0000000040019384        0xc bin/obj/rslib.a(core-9bc28a7f9131c3bd.core.d226853cd57cf678-cgu.0.rcgu.o)
                0x0000000040019384                core::fmt::Formatter::fill
 .text._ZN4core3fmt9Formatter12debug_struct17hf428be4f49f3f788E
                0x0000000040019390       0x38 bin/obj/rslib.a(core-9bc28a7f9131c3bd.core.d226853cd57cf678-cgu.0.rcgu.o)
                0x0000000040019390                core::fmt::Formatter::debug_struct
 .text._ZN4core3fmt9Formatter26debug_struct_field1_finish17ha93f5de8502c20f5E
                0x00000000400193c8       0xc8 bin/obj/rslib.a(core-9bc28a7f9131c3bd.core.d226853cd57cf678-cgu.0.rcgu.o)
                0x00000000400193c8                core::fmt::Formatter::debug_struct_field1_finish
 .text._ZN4core3fmt9Formatter26debug_struct_field2_finish17h4e9cddcf5043888aE
                0x0000000040019490       0xfc bin/obj/rslib.a(core-9bc28a7f9131c3bd.core.d226853cd57cf678-cgu.0.rcgu.o)
                0x0000000040019490                core::fmt::Formatter::debug_struct_field2_finish
 .text._ZN4core3fmt9Formatter26debug_struct_field3_finish17h083e966db5642ebbE
                0x000000004001958c      0x120 bin/obj/rslib.a(core-9bc28a7f9131c3bd.core.d226853cd57cf678-cgu.0.rcgu.o)
                0x000000004001958c                core::fmt::Formatter::debug_struct_field3_finish
 .text._ZN4core3fmt9Formatter26debug_struct_field4_finish17h1487480017889a1fE
                0x00000000400196ac      0x140 bin/obj/rslib.a(core-9bc28a7f9131c3bd.core.d226853cd57cf678-cgu.0.rcgu.o)
                0x00000000400196ac                core::fmt::Formatter::debug_struct_field4_finish
 .text._ZN4core3fmt9Formatter26debug_struct_field5_finish17hb8cd8bc64e151277E
                0x00000000400197ec      0x164 bin/obj/rslib.a(core-9bc28a7f9131c3bd.core.d226853cd57cf678-cgu.0.rcgu.o)
                0x00000000400197ec                core::fmt::Formatter::debug_struct_field5_finish
 .text._ZN4core3fmt9Formatter26debug_struct_fields_finish17h6509c973138b6cc3E
                0x0000000040019950      0x100 bin/obj/rslib.a(core-9bc28a7f9131c3bd.core.d226853cd57cf678-cgu.0.rcgu.o)
                0x0000000040019950                core::fmt::Formatter::debug_struct_fields_finish
 .text._ZN4core3fmt9Formatter11debug_tuple17h4a4627ab5a6ca6d7E
                0x0000000040019a50       0x4c bin/obj/rslib.a(core-9bc28a7f9131c3bd.core.d226853cd57cf678-cgu.0.rcgu.o)
                0x0000000040019a50                core::fmt::Formatter::debug_tuple
 .text._ZN4core3fmt9Formatter25debug_tuple_field1_finish17habc1b7eb386a3da9E
                0x0000000040019a9c      0x160 bin/obj/rslib.a(core-9bc28a7f9131c3bd.core.d226853cd57cf678-cgu.0.rcgu.o)
                0x0000000040019a9c                core::fmt::Formatter::debug_tuple_field1_finish
 .text._ZN4core3fmt9Formatter25debug_tuple_field2_finish17h59eda0ba9816d5f3E
                0x0000000040019bfc      0x1f8 bin/obj/rslib.a(core-9bc28a7f9131c3bd.core.d226853cd57cf678-cgu.0.rcgu.o)
                0x0000000040019bfc                core::fmt::Formatter::debug_tuple_field2_finish
 .text._ZN4core3fmt9Formatter25debug_tuple_field3_finish17hb0c165c59b00eec0E
                0x0000000040019df4      0x2ac bin/obj/rslib.a(core-9bc28a7f9131c3bd.core.d226853cd57cf678-cgu.0.rcgu.o)
                0x0000000040019df4                core::fmt::Formatter::debug_tuple_field3_finish
 .text._ZN4core3fmt9Formatter25debug_tuple_field4_finish17h72d16436df5e1221E
                0x000000004001a0a0      0x35c bin/obj/rslib.a(core-9bc28a7f9131c3bd.core.d226853cd57cf678-cgu.0.rcgu.o)
                0x000000004001a0a0                core::fmt::Formatter::debug_tuple_field4_finish
 .text._ZN4core3fmt9Formatter25debug_tuple_field5_finish17hc88024f1e6a603acE
                0x000000004001a3fc      0x40c bin/obj/rslib.a(core-9bc28a7f9131c3bd.core.d226853cd57cf678-cgu.0.rcgu.o)
                0x000000004001a3fc                core::fmt::Formatter::debug_tuple_field5_finish
 .text._ZN4core3fmt9Formatter25debug_tuple_fields_finish17h864f3c83ca1ed702E
                0x000000004001a808      0x28c bin/obj/rslib.a(core-9bc28a7f9131c3bd.core.d226853cd57cf678-cgu.0.rcgu.o)
                0x000000004001a808                core::fmt::Formatter::debug_tuple_fields_finish
 .text._ZN4core3fmt9Formatter10debug_list17heb1bbe28773e8fe0E
                0x000000004001aa94       0x44 bin/obj/rslib.a(core-9bc28a7f9131c3bd.core.d226853cd57cf678-cgu.0.rcgu.o)
                0x000000004001aa94                core::fmt::Formatter::debug_list
 .text._ZN4core3fmt9Formatter9debug_set17hdbc1653f50f67b30E
                0x000000004001aad8       0x44 bin/obj/rslib.a(core-9bc28a7f9131c3bd.core.d226853cd57cf678-cgu.0.rcgu.o)
                0x000000004001aad8                core::fmt::Formatter::debug_set
 .text._ZN4core3fmt9Formatter9debug_map17h656d6b93990d8659E
                0x000000004001ab1c       0x4c bin/obj/rslib.a(core-9bc28a7f9131c3bd.core.d226853cd57cf678-cgu.0.rcgu.o)
                0x000000004001ab1c                core::fmt::Formatter::debug_map
 .text._ZN57_$LT$core..fmt..Formatter$u20$as$u20$core..fmt..Write$GT$10write_char17hf696da915e283cefE
                0x000000004001ab68        0xc bin/obj/rslib.a(core-9bc28a7f9131c3bd.core.d226853cd57cf678-cgu.0.rcgu.o)
                0x000000004001ab68                <core::fmt::Formatter as core::fmt::Write>::write_char
 .text._ZN55_$LT$core..fmt..Error$u20$as$u20$core..fmt..Display$GT$3fmt17hbe2ff6b9678f3711E
                0x000000004001ab74       0x14 bin/obj/rslib.a(core-9bc28a7f9131c3bd.core.d226853cd57cf678-cgu.0.rcgu.o)
                0x000000004001ab74                <core::fmt::Error as core::fmt::Display>::fmt
 .text._ZN43_$LT$bool$u20$as$u20$core..fmt..Display$GT$3fmt17h9fae1b6bc4bcce2dE
                0x000000004001ab88       0x2c bin/obj/rslib.a(core-9bc28a7f9131c3bd.core.d226853cd57cf678-cgu.0.rcgu.o)
                0x000000004001ab88                <bool as core::fmt::Display>::fmt
 .text._ZN40_$LT$str$u20$as$u20$core..fmt..Debug$GT$3fmt17h9ffdc40d4df036c4E
                0x000000004001abb4      0x3b0 bin/obj/rslib.a(core-9bc28a7f9131c3bd.core.d226853cd57cf678-cgu.0.rcgu.o)
                0x000000004001abb4                <str as core::fmt::Debug>::fmt
 .text._ZN42_$LT$str$u20$as$u20$core..fmt..Display$GT$3fmt17hff00da14a6032a03E
                0x000000004001af64       0x14 bin/obj/rslib.a(core-9bc28a7f9131c3bd.core.d226853cd57cf678-cgu.0.rcgu.o)
                0x000000004001af64                <str as core::fmt::Display>::fmt
 .text._ZN41_$LT$char$u20$as$u20$core..fmt..Debug$GT$3fmt17h004139374ecb2cb6E
                0x000000004001af78       0xe4 bin/obj/rslib.a(core-9bc28a7f9131c3bd.core.d226853cd57cf678-cgu.0.rcgu.o)
                0x000000004001af78                <char as core::fmt::Debug>::fmt
 .text._ZN43_$LT$char$u20$as$u20$core..fmt..Display$GT$3fmt17h898b2061bb503447E
                0x000000004001b05c      0x128 bin/obj/rslib.a(core-9bc28a7f9131c3bd.core.d226853cd57cf678-cgu.0.rcgu.o)
                0x000000004001b05c                <char as core::fmt::Display>::fmt
 .text._ZN4core3fmt17pointer_fmt_inner17he0b517b0d2e14341E
                0x000000004001b184       0xc0 bin/obj/rslib.a(core-9bc28a7f9131c3bd.core.d226853cd57cf678-cgu.0.rcgu.o)
                0x000000004001b184                core::fmt::pointer_fmt_inner
 .text._ZN52_$LT$$BP$const$u20$T$u20$as$u20$core..fmt..Debug$GT$3fmt17h6d383b47be6dc541E
                0x000000004001b244       0xc4 bin/obj/rslib.a(core-9bc28a7f9131c3bd.core.d226853cd57cf678-cgu.0.rcgu.o)
 .text._ZN4core5slice6memchr14memchr_aligned17h9dc28f3ccf792100E
                0x000000004001b308       0xfc bin/obj/rslib.a(core-9bc28a7f9131c3bd.core.d226853cd57cf678-cgu.0.rcgu.o)
                0x000000004001b308                core::slice::memchr::memchr_aligned
 .text._ZN4core5slice6memchr7memrchr17h1e4447cb1e7ee724E
                0x000000004001b404      0x144 bin/obj/rslib.a(core-9bc28a7f9131c3bd.core.d226853cd57cf678-cgu.0.rcgu.o)
                0x000000004001b404                core::slice::memchr::memrchr
 .text._ZN4core5slice4sort6stable5drift11sqrt_approx17hb9855327512dbee4E
                0x000000004001b548       0x2c bin/obj/rslib.a(core-9bc28a7f9131c3bd.core.d226853cd57cf678-cgu.0.rcgu.o)
                0x000000004001b548                core::slice::sort::stable::drift::sqrt_approx
 .text.unlikely._ZN4core5slice4sort6shared9smallsort22panic_on_ord_violation17h41c5b8dc54ac7fc1E
                0x000000004001b574       0x38 bin/obj/rslib.a(core-9bc28a7f9131c3bd.core.d226853cd57cf678-cgu.0.rcgu.o)
                0x000000004001b574                core::slice::sort::shared::smallsort::panic_on_ord_violation
 .text._ZN105_$LT$core..slice..ascii..EscapeAscii$u20$as$u20$core..iter..traits..double_ended..DoubleEndedIterator$GT$9next_back17he6ee3f58ee2e0554E
                0x000000004001b5ac      0x120 bin/obj/rslib.a(core-9bc28a7f9131c3bd.core.d226853cd57cf678-cgu.0.rcgu.o)
                0x000000004001b5ac                <core::slice::ascii::EscapeAscii as core::iter::traits::double_ended::DoubleEndedIterator>::next_back
 .text._ZN70_$LT$core..slice..ascii..EscapeAscii$u20$as$u20$core..fmt..Display$GT$3fmt17h6048f60ab963c7faE
                0x000000004001b6cc      0x23c bin/obj/rslib.a(core-9bc28a7f9131c3bd.core.d226853cd57cf678-cgu.0.rcgu.o)
                0x000000004001b6cc                <core::slice::ascii::EscapeAscii as core::fmt::Display>::fmt
 .text._ZN68_$LT$core..slice..ascii..EscapeAscii$u20$as$u20$core..fmt..Debug$GT$3fmt17hd562e99451a8537bE
                0x000000004001b908       0x60 bin/obj/rslib.a(core-9bc28a7f9131c3bd.core.d226853cd57cf678-cgu.0.rcgu.o)
                0x000000004001b908                <core::slice::ascii::EscapeAscii as core::fmt::Debug>::fmt
 .text.unlikely._ZN4core5slice5index26slice_start_index_len_fail17h304d84665e2f672aE
                0x000000004001b968        0xc bin/obj/rslib.a(core-9bc28a7f9131c3bd.core.d226853cd57cf678-cgu.0.rcgu.o)
                0x000000004001b968                core::slice::index::slice_start_index_len_fail
 .text.unlikely._ZN4core5slice5index24slice_end_index_len_fail17hc8e7335045e9eca4E
                0x000000004001b974        0xc bin/obj/rslib.a(core-9bc28a7f9131c3bd.core.d226853cd57cf678-cgu.0.rcgu.o)
                0x000000004001b974                core::slice::index::slice_end_index_len_fail
 .text.unlikely._ZN4core5slice5index22slice_index_order_fail17h5545224058f10a71E
                0x000000004001b980        0xc bin/obj/rslib.a(core-9bc28a7f9131c3bd.core.d226853cd57cf678-cgu.0.rcgu.o)
                0x000000004001b980                core::slice::index::slice_index_order_fail
 .text.unlikely._ZN4core5slice5index31slice_start_index_overflow_fail17h9e111b695690c5d3E
                0x000000004001b98c       0x34 bin/obj/rslib.a(core-9bc28a7f9131c3bd.core.d226853cd57cf678-cgu.0.rcgu.o)
                0x000000004001b98c                core::slice::index::slice_start_index_overflow_fail
 .text.unlikely._ZN4core5slice5index29slice_end_index_overflow_fail17hbfbf52f08675c564E
                0x000000004001b9c0       0x34 bin/obj/rslib.a(core-9bc28a7f9131c3bd.core.d226853cd57cf678-cgu.0.rcgu.o)
                0x000000004001b9c0                core::slice::index::slice_end_index_overflow_fail
 .text._ZN4core5slice5index10into_range17h0b841958620e9277E
                0x000000004001b9f4       0x6c bin/obj/rslib.a(core-9bc28a7f9131c3bd.core.d226853cd57cf678-cgu.0.rcgu.o)
                0x000000004001b9f4                core::slice::index::into_range
 .text._ZN4core5slice5index16into_slice_range17h9fcaad76703df57eE
                0x000000004001ba60       0x7c bin/obj/rslib.a(core-9bc28a7f9131c3bd.core.d226853cd57cf678-cgu.0.rcgu.o)
                0x000000004001ba60                core::slice::index::into_slice_range
 .text.unlikely._ZN4core5slice29_$LT$impl$u20$$u5b$T$u5d$$GT$15copy_from_slice17len_mismatch_fail17hab58cc364c5382e6E
                0x000000004001badc       0x18 bin/obj/rslib.a(core-9bc28a7f9131c3bd.core.d226853cd57cf678-cgu.0.rcgu.o)
                0x000000004001badc                core::slice::<impl [T]>::copy_from_slice::len_mismatch_fail
 .text._ZN4core5slice29_$LT$impl$u20$$u5b$T$u5d$$GT$16align_to_offsets3gcd17hd3246f522306443fE
                0x000000004001baf4       0x24 bin/obj/rslib.a(core-9bc28a7f9131c3bd.core.d226853cd57cf678-cgu.0.rcgu.o)
                0x000000004001baf4                core::slice::<impl [T]>::align_to_offsets::gcd
 .text._ZN71_$LT$core..slice..GetDisjointMutError$u20$as$u20$core..fmt..Display$GT$3fmt17hfcaa51aeacc178f2E
                0x000000004001bb18       0x30 bin/obj/rslib.a(core-9bc28a7f9131c3bd.core.d226853cd57cf678-cgu.0.rcgu.o)
                0x000000004001bb18                <core::slice::GetDisjointMutError as core::fmt::Display>::fmt
 .text._ZN4core3str8converts9from_utf817hce0776dd73525e03E
                0x000000004001bb48      0x270 bin/obj/rslib.a(core-9bc28a7f9131c3bd.core.d226853cd57cf678-cgu.0.rcgu.o)
                0x000000004001bb48                core::str::converts::from_utf8
 .text._ZN4core3str8converts13from_utf8_mut17h1489089b6f1dbe29E
                0x000000004001bdb8      0x270 bin/obj/rslib.a(core-9bc28a7f9131c3bd.core.d226853cd57cf678-cgu.0.rcgu.o)
                0x000000004001bdb8                core::str::converts::from_utf8_mut
 .text._ZN4core3str5count14do_count_chars17hc73a32bba924fa69E
                0x000000004001c028      0x7a0 bin/obj/rslib.a(core-9bc28a7f9131c3bd.core.d226853cd57cf678-cgu.0.rcgu.o)
                0x000000004001c028                core::str::count::do_count_chars
 .text._ZN4core3str5count23char_count_general_case17ha1223dbab75b3952E
                0x000000004001c7c8      0x440 bin/obj/rslib.a(core-9bc28a7f9131c3bd.core.d226853cd57cf678-cgu.0.rcgu.o)
                0x000000004001c7c8                core::str::count::char_count_general_case
 .text._ZN66_$LT$core..str..error..Utf8Error$u20$as$u20$core..fmt..Display$GT$3fmt17he935219fa1c3cb4eE
                0x000000004001cc08       0x8c bin/obj/rslib.a(core-9bc28a7f9131c3bd.core.d226853cd57cf678-cgu.0.rcgu.o)
                0x000000004001cc08                <core::str::error::Utf8Error as core::fmt::Display>::fmt
 .text._ZN71_$LT$core..str..error..ParseBoolError$u20$as$u20$core..fmt..Display$GT$3fmt17h55363fdc250f443aE
                0x000000004001cc94       0x14 bin/obj/rslib.a(core-9bc28a7f9131c3bd.core.d226853cd57cf678-cgu.0.rcgu.o)
                0x000000004001cc94                <core::str::error::ParseBoolError as core::fmt::Display>::fmt
 .text._ZN59_$LT$core..str..iter..Chars$u20$as$u20$core..fmt..Debug$GT$3fmt17hade02760164129afE
                0x000000004001cca8      0x600 bin/obj/rslib.a(core-9bc28a7f9131c3bd.core.d226853cd57cf678-cgu.0.rcgu.o)
                0x000000004001cca8                <core::str::iter::Chars as core::fmt::Debug>::fmt
 .text._ZN65_$LT$core..str..iter..EncodeUtf16$u20$as$u20$core..fmt..Debug$GT$3fmt17h7b0c4711144b02acE
                0x000000004001d2a8       0x60 bin/obj/rslib.a(core-9bc28a7f9131c3bd.core.d226853cd57cf678-cgu.0.rcgu.o)
                0x000000004001d2a8                <core::str::iter::EncodeUtf16 as core::fmt::Debug>::fmt
 .text.unlikely._ZN4core3str6traits23str_index_overflow_fail17h9c3868ee3e83f582E
                0x000000004001d308       0x34 bin/obj/rslib.a(core-9bc28a7f9131c3bd.core.d226853cd57cf678-cgu.0.rcgu.o)
                0x000000004001d308                core::str::traits::str_index_overflow_fail
 .text._ZN4core3str7pattern11StrSearcher3new17h7d9190d83c4f0ddcE
                0x000000004001d33c      0xb88 bin/obj/rslib.a(core-9bc28a7f9131c3bd.core.d226853cd57cf678-cgu.0.rcgu.o)
                0x000000004001d33c                core::str::pattern::StrSearcher::new
 .text._ZN60_$LT$core..str..lossy..Debug$u20$as$u20$core..fmt..Debug$GT$3fmt17h10bb4d791b7cf651E
                0x000000004001dec4      0x39c bin/obj/rslib.a(core-9bc28a7f9131c3bd.core.d226853cd57cf678-cgu.0.rcgu.o)
                0x000000004001dec4                <core::str::lossy::Debug as core::fmt::Debug>::fmt
 .text._ZN87_$LT$core..str..lossy..Utf8Chunks$u20$as$u20$core..iter..traits..iterator..Iterator$GT$4next17h08e11720a9f78e7fE
                0x000000004001e260      0x1c0 bin/obj/rslib.a(core-9bc28a7f9131c3bd.core.d226853cd57cf678-cgu.0.rcgu.o)
                0x000000004001e260                <core::str::lossy::Utf8Chunks as core::iter::traits::iterator::Iterator>::next
 .text._ZN65_$LT$core..str..lossy..Utf8Chunks$u20$as$u20$core..fmt..Debug$GT$3fmt17hade7958e5478b39aE
                0x000000004001e420       0xcc bin/obj/rslib.a(core-9bc28a7f9131c3bd.core.d226853cd57cf678-cgu.0.rcgu.o)
                0x000000004001e420                <core::str::lossy::Utf8Chunks as core::fmt::Debug>::fmt
 .text.unlikely._ZN4core3str16slice_error_fail17h97d439c26477b1e7E
                0x000000004001e4ec        0xc bin/obj/rslib.a(core-9bc28a7f9131c3bd.core.d226853cd57cf678-cgu.0.rcgu.o)
                0x000000004001e4ec                core::str::slice_error_fail
 .text.unlikely._ZN4core3str19slice_error_fail_ct17h6d2a6fb0c3463f18E
                0x000000004001e4f8       0x34 bin/obj/rslib.a(core-9bc28a7f9131c3bd.core.d226853cd57cf678-cgu.0.rcgu.o)
                0x000000004001e4f8                core::str::slice_error_fail_ct
 .text._ZN4core3str19slice_error_fail_rt17h6e9845fd51eea1bcE
                0x000000004001e52c      0x340 bin/obj/rslib.a(core-9bc28a7f9131c3bd.core.d226853cd57cf678-cgu.0.rcgu.o)
                0x000000004001e52c                core::str::slice_error_fail_rt
 .text._ZN4core3str21_$LT$impl$u20$str$GT$9from_utf817hef5449009338e0a0E
                0x000000004001e86c        0x4 bin/obj/rslib.a(core-9bc28a7f9131c3bd.core.d226853cd57cf678-cgu.0.rcgu.o)
                0x000000004001e86c                core::str::<impl str>::from_utf8
 .text._ZN4core3str21_$LT$impl$u20$str$GT$13from_utf8_mut17h13bc22df2227c1a2E
                0x000000004001e870        0x4 bin/obj/rslib.a(core-9bc28a7f9131c3bd.core.d226853cd57cf678-cgu.0.rcgu.o)
                0x000000004001e870                core::str::<impl str>::from_utf8_mut
 .text._ZN4core3str21_$LT$impl$u20$str$GT$18split_at_unchecked17h29cd45d09f9f5b12E
                0x000000004001e874       0x14 bin/obj/rslib.a(core-9bc28a7f9131c3bd.core.d226853cd57cf678-cgu.0.rcgu.o)
                0x000000004001e874                core::str::<impl str>::split_at_unchecked
 .text._ZN4core3str21_$LT$impl$u20$str$GT$22split_at_mut_unchecked17hd5dcedc28f7b5b59E
                0x000000004001e888       0x14 bin/obj/rslib.a(core-9bc28a7f9131c3bd.core.d226853cd57cf678-cgu.0.rcgu.o)
                0x000000004001e888                core::str::<impl str>::split_at_mut_unchecked
 .text._ZN4core3str21_$LT$impl$u20$str$GT$12escape_debug17h9315d15f1edfb119E
                0x000000004001e89c       0xec bin/obj/rslib.a(core-9bc28a7f9131c3bd.core.d226853cd57cf678-cgu.0.rcgu.o)
                0x000000004001e89c                core::str::<impl str>::escape_debug
 .text._ZN4core3str21_$LT$impl$u20$str$GT$12substr_range17hb237b7da544e9642E
                0x000000004001e988       0x2c bin/obj/rslib.a(core-9bc28a7f9131c3bd.core.d226853cd57cf678-cgu.0.rcgu.o)
                0x000000004001e988                core::str::<impl str>::substr_range
 .text._ZN57_$LT$core..time..Duration$u20$as$u20$core..fmt..Debug$GT$3fmt17h14d5a3ed67057029E
                0x000000004001e9b4       0xe4 bin/obj/rslib.a(core-9bc28a7f9131c3bd.core.d226853cd57cf678-cgu.0.rcgu.o)
                0x000000004001e9b4                <core::time::Duration as core::fmt::Debug>::fmt
 .text._ZN57_$LT$core..time..Duration$u20$as$u20$core..fmt..Debug$GT$3fmt11fmt_decimal17h96d042e23b9b4906E
                0x000000004001ea98      0x568 bin/obj/rslib.a(core-9bc28a7f9131c3bd.core.d226853cd57cf678-cgu.0.rcgu.o)
 .text._ZN57_$LT$core..time..Duration$u20$as$u20$core..fmt..Debug$GT$3fmt11fmt_decimal28_$u7b$$u7b$closure$u7d$$u7d$17h68723ee714d558d9E
                0x000000004001f000      0x218 bin/obj/rslib.a(core-9bc28a7f9131c3bd.core.d226853cd57cf678-cgu.0.rcgu.o)
 .text._ZN72_$LT$core..time..TryFromFloatSecsError$u20$as$u20$core..fmt..Display$GT$3fmt17h5552f3af01a20495E
                0x000000004001f218       0x30 bin/obj/rslib.a(core-9bc28a7f9131c3bd.core.d226853cd57cf678-cgu.0.rcgu.o)
                0x000000004001f218                <core::time::TryFromFloatSecsError as core::fmt::Display>::fmt
 .text._ZN4core7unicode9printable12is_printable17h7ef8bd391724b2a9E
                0x000000004001f248      0x2bc bin/obj/rslib.a(core-9bc28a7f9131c3bd.core.d226853cd57cf678-cgu.0.rcgu.o)
                0x000000004001f248                core::unicode::printable::is_printable
 .text._ZN62_$LT$core..task..wake..Context$u20$as$u20$core..fmt..Debug$GT$3fmt17hb10de8db5eba926bE
                0x000000004001f504       0xc4 bin/obj/rslib.a(core-9bc28a7f9131c3bd.core.d226853cd57cf678-cgu.0.rcgu.o)
                0x000000004001f504                <core::task::wake::Context as core::fmt::Debug>::fmt
 .text._ZN60_$LT$core..task..wake..Waker$u20$as$u20$core..fmt..Debug$GT$3fmt17hfcbc7b8030fba3f8E
                0x000000004001f5c8       0xe8 bin/obj/rslib.a(core-9bc28a7f9131c3bd.core.d226853cd57cf678-cgu.0.rcgu.o)
                0x000000004001f5c8                <core::task::wake::Waker as core::fmt::Debug>::fmt
 .text._ZN65_$LT$core..task..wake..LocalWaker$u20$as$u20$core..fmt..Debug$GT$3fmt17hd07c4cdc1bc3fdd5E
                0x000000004001f6b0       0xe8 bin/obj/rslib.a(core-9bc28a7f9131c3bd.core.d226853cd57cf678-cgu.0.rcgu.o)
                0x000000004001f6b0                <core::task::wake::LocalWaker as core::fmt::Debug>::fmt
 .text._ZN4core5alloc6layout6Layout19is_size_align_valid17h373c0b91fa5ebad3E
                0x000000004001f798       0x20 bin/obj/rslib.a(core-9bc28a7f9131c3bd.core.d226853cd57cf678-cgu.0.rcgu.o)
                0x000000004001f798                core::alloc::layout::Layout::is_size_align_valid
 .text._ZN71_$LT$core..alloc..layout..LayoutError$u20$as$u20$core..fmt..Display$GT$3fmt17h3decba1e07454d12E
                0x000000004001f7b8       0x1c bin/obj/rslib.a(core-9bc28a7f9131c3bd.core.d226853cd57cf678-cgu.0.rcgu.o)
                0x000000004001f7b8                <core::alloc::layout::LayoutError as core::fmt::Display>::fmt
 .text._ZN62_$LT$core..alloc..AllocError$u20$as$u20$core..fmt..Display$GT$3fmt17h2ad36ac7697d877dE
                0x000000004001f7d4       0x1c bin/obj/rslib.a(core-9bc28a7f9131c3bd.core.d226853cd57cf678-cgu.0.rcgu.o)
                0x000000004001f7d4                <core::alloc::AllocError as core::fmt::Display>::fmt
 .text.unlikely._ZN4core3f3221_$LT$impl$u20$f32$GT$5clamp8do_panic7runtime17h9907c24c7cbe64a6E
                0x000000004001f7f0       0x50 bin/obj/rslib.a(core-9bc28a7f9131c3bd.core.d226853cd57cf678-cgu.0.rcgu.o)
                0x000000004001f7f0                core::f32::<impl f32>::clamp::do_panic::runtime
 .text.unlikely._ZN4core3f6421_$LT$impl$u20$f64$GT$5clamp8do_panic7runtime17h781004cb568fba43E
                0x000000004001f840       0x50 bin/obj/rslib.a(core-9bc28a7f9131c3bd.core.d226853cd57cf678-cgu.0.rcgu.o)
                0x000000004001f840                core::f64::<impl f64>::clamp::do_panic::runtime
 .text._ZN49_$LT$u8$u20$as$u20$core..num..bignum..FullOps$GT$12full_div_rem17h965211ef63c3dfcfE
                0x000000004001f890       0x38 bin/obj/rslib.a(core-9bc28a7f9131c3bd.core.d226853cd57cf678-cgu.0.rcgu.o)
                0x000000004001f890                <u8 as core::num::bignum::FullOps>::full_div_rem
 .text._ZN50_$LT$u16$u20$as$u20$core..num..bignum..FullOps$GT$12full_div_rem17h2eb20496bb121341E
                0x000000004001f8c8       0x34 bin/obj/rslib.a(core-9bc28a7f9131c3bd.core.d226853cd57cf678-cgu.0.rcgu.o)
                0x000000004001f8c8                <u16 as core::num::bignum::FullOps>::full_div_rem
 .text._ZN50_$LT$u32$u20$as$u20$core..num..bignum..FullOps$GT$12full_div_rem17hfbe0d295853ffb47E
                0x000000004001f8fc       0x34 bin/obj/rslib.a(core-9bc28a7f9131c3bd.core.d226853cd57cf678-cgu.0.rcgu.o)
                0x000000004001f8fc                <u32 as core::num::bignum::FullOps>::full_div_rem
 .text._ZN4core3num6bignum8Big32x408from_u6417h0feb412f2e8bfccdE
                0x000000004001f930       0x44 bin/obj/rslib.a(core-9bc28a7f9131c3bd.core.d226853cd57cf678-cgu.0.rcgu.o)
                0x000000004001f930                core::num::bignum::Big32x40::from_u64
 .text._ZN4core3num6bignum8Big32x406digits17h0f14542b4e42ee69E
                0x000000004001f974       0x2c bin/obj/rslib.a(core-9bc28a7f9131c3bd.core.d226853cd57cf678-cgu.0.rcgu.o)
                0x000000004001f974                core::num::bignum::Big32x40::digits
 .text._ZN4core3num6bignum8Big32x407get_bit17h3202ab93fabd2616E
                0x000000004001f9a0       0x38 bin/obj/rslib.a(core-9bc28a7f9131c3bd.core.d226853cd57cf678-cgu.0.rcgu.o)
                0x000000004001f9a0                core::num::bignum::Big32x40::get_bit
 .text._ZN4core3num6bignum8Big32x407is_zero17hd12bc45d8bf8087cE
                0x000000004001f9d8       0x50 bin/obj/rslib.a(core-9bc28a7f9131c3bd.core.d226853cd57cf678-cgu.0.rcgu.o)
                0x000000004001f9d8                core::num::bignum::Big32x40::is_zero
 .text._ZN4core3num6bignum8Big32x4010bit_length17h11059006caf4f375E
                0x000000004001fa28       0x84 bin/obj/rslib.a(core-9bc28a7f9131c3bd.core.d226853cd57cf678-cgu.0.rcgu.o)
                0x000000004001fa28                core::num::bignum::Big32x40::bit_length
 .text._ZN4core3num6bignum8Big32x403add17ha8f2c4301eceaa92E
                0x000000004001faac       0xa0 bin/obj/rslib.a(core-9bc28a7f9131c3bd.core.d226853cd57cf678-cgu.0.rcgu.o)
                0x000000004001faac                core::num::bignum::Big32x40::add
 .text._ZN4core3num6bignum8Big32x409add_small17ha9c242882212bce9E
                0x000000004001fb4c      0x3ec bin/obj/rslib.a(core-9bc28a7f9131c3bd.core.d226853cd57cf678-cgu.0.rcgu.o)
                0x000000004001fb4c                core::num::bignum::Big32x40::add_small
 .text._ZN4core3num6bignum8Big32x403sub17h52cb220ae9cfbdebE
                0x000000004001ff38       0x94 bin/obj/rslib.a(core-9bc28a7f9131c3bd.core.d226853cd57cf678-cgu.0.rcgu.o)
                0x000000004001ff38                core::num::bignum::Big32x40::sub
 .text._ZN4core3num6bignum8Big32x409mul_small17ha1562cd1bf060f33E
                0x000000004001ffcc       0x88 bin/obj/rslib.a(core-9bc28a7f9131c3bd.core.d226853cd57cf678-cgu.0.rcgu.o)
                0x000000004001ffcc                core::num::bignum::Big32x40::mul_small
 .text._ZN4core3num6bignum8Big32x408mul_pow217hee1405ec4cfda38eE
                0x0000000040020054      0x47c bin/obj/rslib.a(core-9bc28a7f9131c3bd.core.d226853cd57cf678-cgu.0.rcgu.o)
                0x0000000040020054                core::num::bignum::Big32x40::mul_pow2
 .text._ZN4core3num6bignum8Big32x408mul_pow517ha57d7141ce4f6553E
                0x00000000400204d0      0x18c bin/obj/rslib.a(core-9bc28a7f9131c3bd.core.d226853cd57cf678-cgu.0.rcgu.o)
                0x00000000400204d0                core::num::bignum::Big32x40::mul_pow5
 .text._ZN4core3num6bignum8Big32x4010mul_digits17h58f46b5696a08e2bE
                0x000000004002065c      0x2bc bin/obj/rslib.a(core-9bc28a7f9131c3bd.core.d226853cd57cf678-cgu.0.rcgu.o)
                0x000000004002065c                core::num::bignum::Big32x40::mul_digits
 .text._ZN4core3num6bignum8Big32x4013div_rem_small17h1c8f9b73dfa8257aE
                0x0000000040020918       0x8c bin/obj/rslib.a(core-9bc28a7f9131c3bd.core.d226853cd57cf678-cgu.0.rcgu.o)
                0x0000000040020918                core::num::bignum::Big32x40::div_rem_small
 .text._ZN4core3num6bignum8Big32x407div_rem17h043492131d7dd5e7E
                0x00000000400209a4      0x25c bin/obj/rslib.a(core-9bc28a7f9131c3bd.core.d226853cd57cf678-cgu.0.rcgu.o)
                0x00000000400209a4                core::num::bignum::Big32x40::div_rem
 .text._ZN68_$LT$core..num..bignum..Big32x40$u20$as$u20$core..cmp..PartialEq$GT$2eq17h0cbe41937d91f783E
                0x0000000040020c00       0x20 bin/obj/rslib.a(core-9bc28a7f9131c3bd.core.d226853cd57cf678-cgu.0.rcgu.o)
                0x0000000040020c00                <core::num::bignum::Big32x40 as core::cmp::PartialEq>::eq
 .text._ZN69_$LT$core..num..bignum..Big32x40$u20$as$u20$core..cmp..PartialOrd$GT$11partial_cmp17h044a403b5a512dafE
                0x0000000040020c20       0x70 bin/obj/rslib.a(core-9bc28a7f9131c3bd.core.d226853cd57cf678-cgu.0.rcgu.o)
                0x0000000040020c20                <core::num::bignum::Big32x40 as core::cmp::PartialOrd>::partial_cmp
 .text._ZN62_$LT$core..num..bignum..Big32x40$u20$as$u20$core..cmp..Ord$GT$3cmp17he4c74c972518d30bE
                0x0000000040020c90       0x70 bin/obj/rslib.a(core-9bc28a7f9131c3bd.core.d226853cd57cf678-cgu.0.rcgu.o)
                0x0000000040020c90                <core::num::bignum::Big32x40 as core::cmp::Ord>::cmp
 .text._ZN64_$LT$core..num..bignum..Big32x40$u20$as$u20$core..fmt..Debug$GT$3fmt17hd96538e4c04a1e7eE
                0x0000000040020d00      0x14c bin/obj/rslib.a(core-9bc28a7f9131c3bd.core.d226853cd57cf678-cgu.0.rcgu.o)
                0x0000000040020d00                <core::num::bignum::Big32x40 as core::fmt::Debug>::fmt
 .text._ZN4core3num6bignum5tests6Big8x38from_u6417hcfd58aa2d378a162E
                0x0000000040020e4c       0xb0 bin/obj/rslib.a(core-9bc28a7f9131c3bd.core.d226853cd57cf678-cgu.0.rcgu.o)
                0x0000000040020e4c                core::num::bignum::tests::Big8x3::from_u64
 .text._ZN4core3num6bignum5tests6Big8x36digits17h80bfb7bb8f0f7c44E
                0x0000000040020efc       0x30 bin/obj/rslib.a(core-9bc28a7f9131c3bd.core.d226853cd57cf678-cgu.0.rcgu.o)
                0x0000000040020efc                core::num::bignum::tests::Big8x3::digits
 .text._ZN4core3num6bignum5tests6Big8x37get_bit17hecfffa3e04b758feE
                0x0000000040020f2c       0x40 bin/obj/rslib.a(core-9bc28a7f9131c3bd.core.d226853cd57cf678-cgu.0.rcgu.o)
                0x0000000040020f2c                core::num::bignum::tests::Big8x3::get_bit
 .text._ZN4core3num6bignum5tests6Big8x37is_zero17h39f48ab400c10f35E
                0x0000000040020f6c       0x78 bin/obj/rslib.a(core-9bc28a7f9131c3bd.core.d226853cd57cf678-cgu.0.rcgu.o)
                0x0000000040020f6c                core::num::bignum::tests::Big8x3::is_zero
 .text._ZN4core3num6bignum5tests6Big8x310bit_length17h62ca3ea68111d427E
                0x0000000040020fe4       0xc4 bin/obj/rslib.a(core-9bc28a7f9131c3bd.core.d226853cd57cf678-cgu.0.rcgu.o)
                0x0000000040020fe4                core::num::bignum::tests::Big8x3::bit_length
 .text._ZN4core3num6bignum5tests6Big8x33add17hfdad34ae9c8b701bE
                0x00000000400210a8       0xb4 bin/obj/rslib.a(core-9bc28a7f9131c3bd.core.d226853cd57cf678-cgu.0.rcgu.o)
                0x00000000400210a8                core::num::bignum::tests::Big8x3::add
 .text._ZN4core3num6bignum5tests6Big8x39add_small17h5cc814d6e23dbfe0E
                0x000000004002115c       0x8c bin/obj/rslib.a(core-9bc28a7f9131c3bd.core.d226853cd57cf678-cgu.0.rcgu.o)
                0x000000004002115c                core::num::bignum::tests::Big8x3::add_small
 .text._ZN4core3num6bignum5tests6Big8x33sub17h1b22b93bb81648fbE
                0x00000000400211e8       0xa4 bin/obj/rslib.a(core-9bc28a7f9131c3bd.core.d226853cd57cf678-cgu.0.rcgu.o)
                0x00000000400211e8                core::num::bignum::tests::Big8x3::sub
 .text._ZN4core3num6bignum5tests6Big8x39mul_small17h8d0ca058aee20af2E
                0x000000004002128c       0xa8 bin/obj/rslib.a(core-9bc28a7f9131c3bd.core.d226853cd57cf678-cgu.0.rcgu.o)
                0x000000004002128c                core::num::bignum::tests::Big8x3::mul_small
 .text._ZN4core3num6bignum5tests6Big8x38mul_pow217h96854e4cddd2c338E
                0x0000000040021334      0x6a4 bin/obj/rslib.a(core-9bc28a7f9131c3bd.core.d226853cd57cf678-cgu.0.rcgu.o)
                0x0000000040021334                core::num::bignum::tests::Big8x3::mul_pow2
 .text._ZN4core3num6bignum5tests6Big8x38mul_pow517h47bddc9f953b4cb2E
                0x00000000400219d8      0x178 bin/obj/rslib.a(core-9bc28a7f9131c3bd.core.d226853cd57cf678-cgu.0.rcgu.o)
                0x00000000400219d8                core::num::bignum::tests::Big8x3::mul_pow5
 .text._ZN4core3num6bignum5tests6Big8x310mul_digits17heb080ced0ce8c3caE
                0x0000000040021b50      0x36c bin/obj/rslib.a(core-9bc28a7f9131c3bd.core.d226853cd57cf678-cgu.0.rcgu.o)
                0x0000000040021b50                core::num::bignum::tests::Big8x3::mul_digits
 .text._ZN4core3num6bignum5tests6Big8x313div_rem_small17hed98e84efaf91f22E
                0x0000000040021ebc       0xc0 bin/obj/rslib.a(core-9bc28a7f9131c3bd.core.d226853cd57cf678-cgu.0.rcgu.o)
                0x0000000040021ebc                core::num::bignum::tests::Big8x3::div_rem_small
 .text._ZN4core3num6bignum5tests6Big8x37div_rem17hf9c0eb39d00ec8e2E
                0x0000000040021f7c      0x2dc bin/obj/rslib.a(core-9bc28a7f9131c3bd.core.d226853cd57cf678-cgu.0.rcgu.o)
                0x0000000040021f7c                core::num::bignum::tests::Big8x3::div_rem
 .text._ZN73_$LT$core..num..bignum..tests..Big8x3$u20$as$u20$core..cmp..PartialEq$GT$2eq17hf764bdffc841a2bbE
                0x0000000040022258       0x28 bin/obj/rslib.a(core-9bc28a7f9131c3bd.core.d226853cd57cf678-cgu.0.rcgu.o)
                0x0000000040022258                <core::num::bignum::tests::Big8x3 as core::cmp::PartialEq>::eq
 .text._ZN74_$LT$core..num..bignum..tests..Big8x3$u20$as$u20$core..cmp..PartialOrd$GT$11partial_cmp17he7060419d321ae5cE
                0x0000000040022280       0xb0 bin/obj/rslib.a(core-9bc28a7f9131c3bd.core.d226853cd57cf678-cgu.0.rcgu.o)
                0x0000000040022280                <core::num::bignum::tests::Big8x3 as core::cmp::PartialOrd>::partial_cmp
 .text._ZN67_$LT$core..num..bignum..tests..Big8x3$u20$as$u20$core..cmp..Ord$GT$3cmp17h9c2d4a2f2600cb77E
                0x0000000040022330       0xb0 bin/obj/rslib.a(core-9bc28a7f9131c3bd.core.d226853cd57cf678-cgu.0.rcgu.o)
                0x0000000040022330                <core::num::bignum::tests::Big8x3 as core::cmp::Ord>::cmp
 .text._ZN69_$LT$core..num..bignum..tests..Big8x3$u20$as$u20$core..fmt..Debug$GT$3fmt17h9db439edcd2b5502E
                0x00000000400223e0      0x13c bin/obj/rslib.a(core-9bc28a7f9131c3bd.core.d226853cd57cf678-cgu.0.rcgu.o)
                0x00000000400223e0                <core::num::bignum::tests::Big8x3 as core::fmt::Debug>::fmt
 .text._ZN4core3num7dec2flt60_$LT$impl$u20$core..str..traits..FromStr$u20$for$u20$f16$GT$8from_str17h2f217671cdab5293E
                0x000000004002251c      0x4f0 bin/obj/rslib.a(core-9bc28a7f9131c3bd.core.d226853cd57cf678-cgu.0.rcgu.o)
                0x000000004002251c                core::num::dec2flt::<impl core::str::traits::FromStr for f16>::from_str
 .text._ZN4core3num7dec2flt60_$LT$impl$u20$core..str..traits..FromStr$u20$for$u20$f32$GT$8from_str17ha413fa7968cdf51cE
                0x0000000040022a0c      0x4c0 bin/obj/rslib.a(core-9bc28a7f9131c3bd.core.d226853cd57cf678-cgu.0.rcgu.o)
                0x0000000040022a0c                core::num::dec2flt::<impl core::str::traits::FromStr for f32>::from_str
 .text._ZN4core3num7dec2flt60_$LT$impl$u20$core..str..traits..FromStr$u20$for$u20$f64$GT$8from_str17h9c88c2c53c3cec9bE
                0x0000000040022ecc      0x490 bin/obj/rslib.a(core-9bc28a7f9131c3bd.core.d226853cd57cf678-cgu.0.rcgu.o)
                0x0000000040022ecc                core::num::dec2flt::<impl core::str::traits::FromStr for f64>::from_str
 .text._ZN73_$LT$core..num..nonzero..NonZero$LT$T$GT$$u20$as$u20$core..fmt..Debug$GT$3fmt17h68eb52ae100eb8e2E
                0x000000004002335c       0xe4 bin/obj/rslib.a(core-9bc28a7f9131c3bd.core.d226853cd57cf678-cgu.0.rcgu.o)
 .text._ZN84_$LT$core..num..nonzero..NonZero$LT$u8$GT$$u20$as$u20$core..str..traits..FromStr$GT$8from_str17h17a2e5b3f6487f47E
                0x0000000040023440      0x10c bin/obj/rslib.a(core-9bc28a7f9131c3bd.core.d226853cd57cf678-cgu.0.rcgu.o)
                0x0000000040023440                <core::num::nonzero::NonZero<u8> as core::str::traits::FromStr>::from_str
 .text._ZN85_$LT$core..num..nonzero..NonZero$LT$u16$GT$$u20$as$u20$core..str..traits..FromStr$GT$8from_str17hccebb009da4aa621E
                0x000000004002354c      0x114 bin/obj/rslib.a(core-9bc28a7f9131c3bd.core.d226853cd57cf678-cgu.0.rcgu.o)
                0x000000004002354c                <core::num::nonzero::NonZero<u16> as core::str::traits::FromStr>::from_str
 .text._ZN85_$LT$core..num..nonzero..NonZero$LT$u32$GT$$u20$as$u20$core..str..traits..FromStr$GT$8from_str17h6d91f9c7038b6e07E
                0x0000000040023660      0x148 bin/obj/rslib.a(core-9bc28a7f9131c3bd.core.d226853cd57cf678-cgu.0.rcgu.o)
                0x0000000040023660                <core::num::nonzero::NonZero<u32> as core::str::traits::FromStr>::from_str
 .text._ZN85_$LT$core..num..nonzero..NonZero$LT$u64$GT$$u20$as$u20$core..str..traits..FromStr$GT$8from_str17h1097e0dd86cbb36dE
                0x00000000400237a8      0x110 bin/obj/rslib.a(core-9bc28a7f9131c3bd.core.d226853cd57cf678-cgu.0.rcgu.o)
                0x00000000400237a8                <core::num::nonzero::NonZero<u64> as core::str::traits::FromStr>::from_str
                0x00000000400237a8                <core::num::nonzero::NonZero<usize> as core::str::traits::FromStr>::from_str
 .text._ZN86_$LT$core..num..nonzero..NonZero$LT$u128$GT$$u20$as$u20$core..str..traits..FromStr$GT$8from_str17h74d2641b9fc9be38E
                0x00000000400238b8      0x144 bin/obj/rslib.a(core-9bc28a7f9131c3bd.core.d226853cd57cf678-cgu.0.rcgu.o)
                0x00000000400238b8                <core::num::nonzero::NonZero<u128> as core::str::traits::FromStr>::from_str
 .text._ZN84_$LT$core..num..nonzero..NonZero$LT$i8$GT$$u20$as$u20$core..str..traits..FromStr$GT$8from_str17h74487d26c8d39b4fE
                0x00000000400239fc      0x210 bin/obj/rslib.a(core-9bc28a7f9131c3bd.core.d226853cd57cf678-cgu.0.rcgu.o)
                0x00000000400239fc                <core::num::nonzero::NonZero<i8> as core::str::traits::FromStr>::from_str
 .text._ZN85_$LT$core..num..nonzero..NonZero$LT$i16$GT$$u20$as$u20$core..str..traits..FromStr$GT$8from_str17h60b048f79e984ae3E
                0x0000000040023c0c      0x208 bin/obj/rslib.a(core-9bc28a7f9131c3bd.core.d226853cd57cf678-cgu.0.rcgu.o)
                0x0000000040023c0c                <core::num::nonzero::NonZero<i16> as core::str::traits::FromStr>::from_str
 .text._ZN85_$LT$core..num..nonzero..NonZero$LT$i32$GT$$u20$as$u20$core..str..traits..FromStr$GT$8from_str17h244fa8790805166fE
                0x0000000040023e14      0x1f0 bin/obj/rslib.a(core-9bc28a7f9131c3bd.core.d226853cd57cf678-cgu.0.rcgu.o)
                0x0000000040023e14                <core::num::nonzero::NonZero<i32> as core::str::traits::FromStr>::from_str
 .text._ZN85_$LT$core..num..nonzero..NonZero$LT$i64$GT$$u20$as$u20$core..str..traits..FromStr$GT$8from_str17hfd76258ec8e5baa1E
                0x0000000040024004      0x1d0 bin/obj/rslib.a(core-9bc28a7f9131c3bd.core.d226853cd57cf678-cgu.0.rcgu.o)
                0x0000000040024004                <core::num::nonzero::NonZero<i64> as core::str::traits::FromStr>::from_str
                0x0000000040024004                <core::num::nonzero::NonZero<isize> as core::str::traits::FromStr>::from_str
 .text._ZN86_$LT$core..num..nonzero..NonZero$LT$i128$GT$$u20$as$u20$core..str..traits..FromStr$GT$8from_str17h587816e5e0382684E
                0x00000000400241d4      0x250 bin/obj/rslib.a(core-9bc28a7f9131c3bd.core.d226853cd57cf678-cgu.0.rcgu.o)
                0x00000000400241d4                <core::num::nonzero::NonZero<i128> as core::str::traits::FromStr>::from_str
 .text._ZN72_$LT$core..num..niche_types..Nanoseconds$u20$as$u20$core..fmt..Debug$GT$3fmt17h8f8048f07b2dc7ddE
                0x0000000040024424       0xe4 bin/obj/rslib.a(core-9bc28a7f9131c3bd.core.d226853cd57cf678-cgu.0.rcgu.o)
                0x0000000040024424                <core::num::niche_types::Nanoseconds as core::fmt::Debug>::fmt
 .text._ZN75_$LT$core..num..niche_types..NonZeroU8Inner$u20$as$u20$core..fmt..Debug$GT$3fmt17h5c4bae1c3b532d1aE
                0x0000000040024508        0x8 bin/obj/rslib.a(core-9bc28a7f9131c3bd.core.d226853cd57cf678-cgu.0.rcgu.o)
                0x0000000040024508                <core::num::niche_types::NonZeroU8Inner as core::fmt::Debug>::fmt
 .text._ZN76_$LT$core..num..niche_types..NonZeroU16Inner$u20$as$u20$core..fmt..Debug$GT$3fmt17h688497e9d50d4858E
                0x0000000040024510       0xe4 bin/obj/rslib.a(core-9bc28a7f9131c3bd.core.d226853cd57cf678-cgu.0.rcgu.o)
                0x0000000040024510                <core::num::niche_types::NonZeroU16Inner as core::fmt::Debug>::fmt
 .text._ZN76_$LT$core..num..niche_types..NonZeroU32Inner$u20$as$u20$core..fmt..Debug$GT$3fmt17hd68d519c5c6db9c6E
                0x00000000400245f4       0xe4 bin/obj/rslib.a(core-9bc28a7f9131c3bd.core.d226853cd57cf678-cgu.0.rcgu.o)
                0x00000000400245f4                <core::num::niche_types::NonZeroU32Inner as core::fmt::Debug>::fmt
 .text._ZN76_$LT$core..num..niche_types..NonZeroU64Inner$u20$as$u20$core..fmt..Debug$GT$3fmt17hbc826f25e20b0d17E
                0x00000000400246d8       0xe4 bin/obj/rslib.a(core-9bc28a7f9131c3bd.core.d226853cd57cf678-cgu.0.rcgu.o)
                0x00000000400246d8                <core::num::niche_types::NonZeroUsizeInner as core::fmt::Debug>::fmt
                0x00000000400246d8                <core::num::niche_types::NonZeroU64Inner as core::fmt::Debug>::fmt
 .text._ZN77_$LT$core..num..niche_types..NonZeroU128Inner$u20$as$u20$core..fmt..Debug$GT$3fmt17h5e228d00c6261e7dE
                0x00000000400247bc       0x10 bin/obj/rslib.a(core-9bc28a7f9131c3bd.core.d226853cd57cf678-cgu.0.rcgu.o)
                0x00000000400247bc                <core::num::niche_types::NonZeroU128Inner as core::fmt::Debug>::fmt
 .text._ZN75_$LT$core..num..niche_types..NonZeroI8Inner$u20$as$u20$core..fmt..Debug$GT$3fmt17h805c0d6db5a92f59E
                0x00000000400247cc        0x8 bin/obj/rslib.a(core-9bc28a7f9131c3bd.core.d226853cd57cf678-cgu.0.rcgu.o)
                0x00000000400247cc                <core::num::niche_types::NonZeroI8Inner as core::fmt::Debug>::fmt
 .text._ZN76_$LT$core..num..niche_types..NonZeroI16Inner$u20$as$u20$core..fmt..Debug$GT$3fmt17hfdca76a17389ff3eE
                0x00000000400247d4       0xe4 bin/obj/rslib.a(core-9bc28a7f9131c3bd.core.d226853cd57cf678-cgu.0.rcgu.o)
                0x00000000400247d4                <core::num::niche_types::NonZeroI16Inner as core::fmt::Debug>::fmt
 .text._ZN76_$LT$core..num..niche_types..NonZeroI32Inner$u20$as$u20$core..fmt..Debug$GT$3fmt17hb4cba66e5562dbb5E
                0x00000000400248b8       0xe4 bin/obj/rslib.a(core-9bc28a7f9131c3bd.core.d226853cd57cf678-cgu.0.rcgu.o)
                0x00000000400248b8                <core::num::niche_types::NonZeroI32Inner as core::fmt::Debug>::fmt
 .text._ZN76_$LT$core..num..niche_types..NonZeroI64Inner$u20$as$u20$core..fmt..Debug$GT$3fmt17h033138acd0a8a674E
                0x000000004002499c       0xe4 bin/obj/rslib.a(core-9bc28a7f9131c3bd.core.d226853cd57cf678-cgu.0.rcgu.o)
                0x000000004002499c                <core::num::niche_types::NonZeroI64Inner as core::fmt::Debug>::fmt
                0x000000004002499c                <core::num::niche_types::NonZeroIsizeInner as core::fmt::Debug>::fmt
 .text._ZN77_$LT$core..num..niche_types..NonZeroI128Inner$u20$as$u20$core..fmt..Debug$GT$3fmt17h8dcd28885382630fE
                0x0000000040024a80       0x10 bin/obj/rslib.a(core-9bc28a7f9131c3bd.core.d226853cd57cf678-cgu.0.rcgu.o)
                0x0000000040024a80                <core::num::niche_types::NonZeroI128Inner as core::fmt::Debug>::fmt
 .text._ZN77_$LT$core..num..niche_types..NonZeroCharInner$u20$as$u20$core..fmt..Debug$GT$3fmt17hfc0f9f2955fee584E
                0x0000000040024a90       0xe4 bin/obj/rslib.a(core-9bc28a7f9131c3bd.core.d226853cd57cf678-cgu.0.rcgu.o)
                0x0000000040024a90                <core::num::niche_types::NonZeroCharInner as core::fmt::Debug>::fmt
 .text._ZN75_$LT$core..num..niche_types..UsizeNoHighBit$u20$as$u20$core..fmt..Debug$GT$3fmt17h1bc6057112cf9915E
                0x0000000040024b74       0xe4 bin/obj/rslib.a(core-9bc28a7f9131c3bd.core.d226853cd57cf678-cgu.0.rcgu.o)
                0x0000000040024b74                <core::num::niche_types::UsizeNoHighBit as core::fmt::Debug>::fmt
 .text._ZN74_$LT$core..num..niche_types..U32NotAllOnes$u20$as$u20$core..fmt..Debug$GT$3fmt17hc3bd30a787d6eaddE
                0x0000000040024c58       0xe4 bin/obj/rslib.a(core-9bc28a7f9131c3bd.core.d226853cd57cf678-cgu.0.rcgu.o)
                0x0000000040024c58                <core::num::niche_types::U32NotAllOnes as core::fmt::Debug>::fmt
 .text._ZN74_$LT$core..num..niche_types..I32NotAllOnes$u20$as$u20$core..fmt..Debug$GT$3fmt17h3dadde00eccf2e02E
                0x0000000040024d3c       0xe4 bin/obj/rslib.a(core-9bc28a7f9131c3bd.core.d226853cd57cf678-cgu.0.rcgu.o)
                0x0000000040024d3c                <core::num::niche_types::I32NotAllOnes as core::fmt::Debug>::fmt
 .text._ZN74_$LT$core..num..niche_types..U64NotAllOnes$u20$as$u20$core..fmt..Debug$GT$3fmt17h145653fad9883d39E
                0x0000000040024e20       0xe4 bin/obj/rslib.a(core-9bc28a7f9131c3bd.core.d226853cd57cf678-cgu.0.rcgu.o)
                0x0000000040024e20                <core::num::niche_types::U64NotAllOnes as core::fmt::Debug>::fmt
 .text._ZN74_$LT$core..num..niche_types..I64NotAllOnes$u20$as$u20$core..fmt..Debug$GT$3fmt17h52580e79fa711cd9E
                0x0000000040024f04       0xe4 bin/obj/rslib.a(core-9bc28a7f9131c3bd.core.d226853cd57cf678-cgu.0.rcgu.o)
                0x0000000040024f04                <core::num::niche_types::I64NotAllOnes as core::fmt::Debug>::fmt
 .text.unlikely._ZN4core3num22from_ascii_radix_panic8do_panic7runtime17hfe230a32d6c7b922E
                0x0000000040024fe8       0x44 bin/obj/rslib.a(core-9bc28a7f9131c3bd.core.d226853cd57cf678-cgu.0.rcgu.o)
                0x0000000040024fe8                core::num::from_ascii_radix_panic::do_panic::runtime
 .text.unlikely._ZN4core10intrinsics3mir11PtrMetadata19panic_cold_explicit17hed0a482219b4bfacE
                0x000000004002502c        0xc bin/obj/rslib.a(core-9bc28a7f9131c3bd.core.d226853cd57cf678-cgu.0.rcgu.o)
                0x000000004002502c                core::intrinsics::mir::UnwindContinue::panic_cold_explicit
                0x000000004002502c                core::intrinsics::mir::Retag::panic_cold_explicit
                0x000000004002502c                core::intrinsics::mir::StorageDead::panic_cold_explicit
                0x000000004002502c                core::intrinsics::mir::UnwindResume::panic_cold_explicit
                0x000000004002502c                core::intrinsics::mir::CopyForDeref::panic_cold_explicit
                0x000000004002502c                core::intrinsics::mir::ReturnTo::panic_cold_explicit
                0x000000004002502c                core::intrinsics::mir::Field::panic_cold_explicit
                0x000000004002502c                core::intrinsics::mir::Variant::panic_cold_explicit
                0x000000004002502c                core::intrinsics::mir::StorageLive::panic_cold_explicit
                0x000000004002502c                core::intrinsics::mir::Assume::panic_cold_explicit
                0x000000004002502c                core::intrinsics::mir::Goto::panic_cold_explicit
                0x000000004002502c                core::intrinsics::mir::Move::panic_cold_explicit
                0x000000004002502c                core::intrinsics::mir::Len::panic_cold_explicit
                0x000000004002502c                core::intrinsics::mir::CastTransmute::panic_cold_explicit
                0x000000004002502c                core::intrinsics::mir::PtrMetadata::panic_cold_explicit
                0x000000004002502c                core::intrinsics::mir::__debuginfo::panic_cold_explicit
                0x000000004002502c                core::intrinsics::mir::Call::panic_cold_explicit
                0x000000004002502c                core::intrinsics::mir::Unreachable::panic_cold_explicit
                0x000000004002502c                core::intrinsics::mir::TailCall::panic_cold_explicit
                0x000000004002502c                core::intrinsics::mir::UnwindUnreachable::panic_cold_explicit
                0x000000004002502c                core::intrinsics::mir::UnwindTerminate::panic_cold_explicit
                0x000000004002502c                core::intrinsics::mir::Return::panic_cold_explicit
                0x000000004002502c                core::intrinsics::mir::Drop::panic_cold_explicit
                0x000000004002502c                core::intrinsics::mir::UnwindCleanup::panic_cold_explicit
                0x000000004002502c                core::intrinsics::mir::SetDiscriminant::panic_cold_explicit
                0x000000004002502c                core::intrinsics::mir::Deinit::panic_cold_explicit
                0x000000004002502c                core::intrinsics::mir::Checked::panic_cold_explicit
                0x000000004002502c                core::intrinsics::mir::__internal_make_place::panic_cold_explicit
                0x000000004002502c                core::intrinsics::mir::CastPtrToPtr::panic_cold_explicit
                0x000000004002502c                core::intrinsics::mir::Static::panic_cold_explicit
                0x000000004002502c                core::intrinsics::mir::StaticMut::panic_cold_explicit
                0x000000004002502c                core::intrinsics::mir::Offset::panic_cold_explicit
                0x000000004002502c                core::intrinsics::mir::Discriminant::panic_cold_explicit
 .text._ZN85_$LT$core..marker..variance..PhantomCovariantLifetime$u20$as$u20$core..fmt..Debug$GT$3fmt17h94dec6a6bb65d651E
                0x0000000040025038       0x1c bin/obj/rslib.a(core-9bc28a7f9131c3bd.core.d226853cd57cf678-cgu.0.rcgu.o)
                0x0000000040025038                <core::marker::variance::PhantomCovariantLifetime as core::fmt::Debug>::fmt
 .text._ZN89_$LT$core..marker..variance..PhantomContravariantLifetime$u20$as$u20$core..fmt..Debug$GT$3fmt17h675108e13f042f7fE
                0x0000000040025054       0x1c bin/obj/rslib.a(core-9bc28a7f9131c3bd.core.d226853cd57cf678-cgu.0.rcgu.o)
                0x0000000040025054                <core::marker::variance::PhantomContravariantLifetime as core::fmt::Debug>::fmt
 .text._ZN85_$LT$core..marker..variance..PhantomInvariantLifetime$u20$as$u20$core..fmt..Debug$GT$3fmt17h9b3e8115916609e7E
                0x0000000040025070       0x1c bin/obj/rslib.a(core-9bc28a7f9131c3bd.core.d226853cd57cf678-cgu.0.rcgu.o)
                0x0000000040025070                <core::marker::variance::PhantomInvariantLifetime as core::fmt::Debug>::fmt
 .text.unlikely._ZN4core4char7methods15encode_utf8_raw8do_panic7runtime17hf8c3a170b224b69fE
                0x000000004002508c       0x6c bin/obj/rslib.a(core-9bc28a7f9131c3bd.core.d226853cd57cf678-cgu.0.rcgu.o)
                0x000000004002508c                core::char::methods::encode_utf8_raw::do_panic::runtime
 .text.unlikely._ZN4core4char7methods16encode_utf16_raw8do_panic7runtime17hbd4290182870038fE
                0x00000000400250f8       0x6c bin/obj/rslib.a(core-9bc28a7f9131c3bd.core.d226853cd57cf678-cgu.0.rcgu.o)
                0x00000000400250f8                core::char::methods::encode_utf16_raw::do_panic::runtime
 .text._ZN82_$LT$core..char..ToLowercase$u20$as$u20$core..iter..traits..iterator..Iterator$GT$4next17h2780530ad17fee38E
                0x0000000040025164       0x2c bin/obj/rslib.a(core-9bc28a7f9131c3bd.core.d226853cd57cf678-cgu.0.rcgu.o)
                0x0000000040025164                <core::char::ToUppercase as core::iter::traits::iterator::Iterator>::next
                0x0000000040025164                <core::char::ToLowercase as core::iter::traits::iterator::Iterator>::next
 .text._ZN82_$LT$core..char..ToLowercase$u20$as$u20$core..iter..traits..iterator..Iterator$GT$5count17h995ab913fff5e954E
                0x0000000040025190        0xc bin/obj/rslib.a(core-9bc28a7f9131c3bd.core.d226853cd57cf678-cgu.0.rcgu.o)
                0x0000000040025190                <core::char::ToUppercase as core::iter::traits::iterator::Iterator>::count
                0x0000000040025190                <core::char::ToLowercase as core::iter::traits::iterator::Iterator>::count
 .text._ZN82_$LT$core..char..ToLowercase$u20$as$u20$core..iter..traits..iterator..Iterator$GT$4last17h55add9d7318f395dE
                0x000000004002519c       0x44 bin/obj/rslib.a(core-9bc28a7f9131c3bd.core.d226853cd57cf678-cgu.0.rcgu.o)
                0x000000004002519c                <core::char::ToLowercase as core::iter::traits::iterator::Iterator>::last
                0x000000004002519c                <core::char::ToUppercase as core::iter::traits::iterator::Iterator>::last
 .text._ZN82_$LT$core..char..ToLowercase$u20$as$u20$core..iter..traits..iterator..Iterator$GT$10advance_by17hde77ca3402bdca35E
                0x00000000400251e0       0x24 bin/obj/rslib.a(core-9bc28a7f9131c3bd.core.d226853cd57cf678-cgu.0.rcgu.o)
                0x00000000400251e0                <core::char::ToUppercase as core::iter::traits::iterator::Iterator>::advance_by
                0x00000000400251e0                <core::char::ToLowercase as core::iter::traits::iterator::Iterator>::advance_by
 .text._ZN82_$LT$core..char..ToLowercase$u20$as$u20$core..iter..traits..iterator..Iterator$GT$24__iterator_get_unchecked17hc856dfea2f74fce6E
                0x0000000040025204       0x14 bin/obj/rslib.a(core-9bc28a7f9131c3bd.core.d226853cd57cf678-cgu.0.rcgu.o)
                0x0000000040025204                <core::char::ToUppercase as core::iter::traits::iterator::Iterator>::__iterator_get_unchecked
                0x0000000040025204                <core::char::ToLowercase as core::iter::traits::iterator::Iterator>::__iterator_get_unchecked
 .text._ZN97_$LT$core..char..ToLowercase$u20$as$u20$core..iter..traits..double_ended..DoubleEndedIterator$GT$9next_back17h9f9d3f68a3a0d6f3E
                0x0000000040025218       0x28 bin/obj/rslib.a(core-9bc28a7f9131c3bd.core.d226853cd57cf678-cgu.0.rcgu.o)
                0x0000000040025218                <core::char::ToUppercase as core::iter::traits::double_ended::DoubleEndedIterator>::next_back
                0x0000000040025218                <core::char::ToLowercase as core::iter::traits::double_ended::DoubleEndedIterator>::next_back
 .text._ZN97_$LT$core..char..ToLowercase$u20$as$u20$core..iter..traits..double_ended..DoubleEndedIterator$GT$15advance_back_by17h99da7a56f92726ccE
                0x0000000040025240       0x28 bin/obj/rslib.a(core-9bc28a7f9131c3bd.core.d226853cd57cf678-cgu.0.rcgu.o)
                0x0000000040025240                <core::char::ToLowercase as core::iter::traits::double_ended::DoubleEndedIterator>::advance_back_by
                0x0000000040025240                <core::char::ToUppercase as core::iter::traits::double_ended::DoubleEndedIterator>::advance_back_by
 .text._ZN77_$LT$core..net..ip_addr..Ipv4Addr$u20$as$u20$core..ops..bit..BitAndAssign$GT$13bitand_assign17h3bd3b2c2d433750fE
                0x0000000040025268       0x34 bin/obj/rslib.a(core-9bc28a7f9131c3bd.core.d226853cd57cf678-cgu.0.rcgu.o)
                0x0000000040025268                <core::net::ip_addr::Ipv4Addr as core::ops::bit::BitAndAssign>::bitand_assign
 .text._ZN117_$LT$core..net..ip_addr..Ipv4Addr$u20$as$u20$core..ops..bit..BitAndAssign$LT$$RF$core..net..ip_addr..Ipv4Addr$GT$$GT$13bitand_assign17h2801e47ed406f722E
                0x000000004002529c       0x84 bin/obj/rslib.a(core-9bc28a7f9131c3bd.core.d226853cd57cf678-cgu.0.rcgu.o)
                0x000000004002529c                <core::net::ip_addr::Ipv4Addr as core::ops::bit::BitAndAssign<&core::net::ip_addr::Ipv4Addr>>::bitand_assign
 .text._ZN76_$LT$core..net..ip_addr..Ipv4Addr$u20$as$u20$core..ops..bit..BitOrAssign$GT$12bitor_assign17h601be987f1c37714E
                0x0000000040025320       0x34 bin/obj/rslib.a(core-9bc28a7f9131c3bd.core.d226853cd57cf678-cgu.0.rcgu.o)
                0x0000000040025320                <core::net::ip_addr::Ipv4Addr as core::ops::bit::BitOrAssign>::bitor_assign
 .text._ZN116_$LT$core..net..ip_addr..Ipv4Addr$u20$as$u20$core..ops..bit..BitOrAssign$LT$$RF$core..net..ip_addr..Ipv4Addr$GT$$GT$12bitor_assign17h3ae14e34db16f6d6E
                0x0000000040025354       0x84 bin/obj/rslib.a(core-9bc28a7f9131c3bd.core.d226853cd57cf678-cgu.0.rcgu.o)
                0x0000000040025354                <core::net::ip_addr::Ipv4Addr as core::ops::bit::BitOrAssign<&core::net::ip_addr::Ipv4Addr>>::bitor_assign
 .text._ZN77_$LT$core..net..ip_addr..Ipv6Addr$u20$as$u20$core..ops..bit..BitAndAssign$GT$13bitand_assign17h9e7c5b63eaa4ca16E
                0x00000000400253d8      0x178 bin/obj/rslib.a(core-9bc28a7f9131c3bd.core.d226853cd57cf678-cgu.0.rcgu.o)
                0x00000000400253d8                <core::net::ip_addr::Ipv6Addr as core::ops::bit::BitAndAssign>::bitand_assign
 .text._ZN117_$LT$core..net..ip_addr..Ipv6Addr$u20$as$u20$core..ops..bit..BitAndAssign$LT$$RF$core..net..ip_addr..Ipv6Addr$GT$$GT$13bitand_assign17h64cf2cc0f3c9c5c6E
                0x0000000040025550      0x1d0 bin/obj/rslib.a(core-9bc28a7f9131c3bd.core.d226853cd57cf678-cgu.0.rcgu.o)
                0x0000000040025550                <core::net::ip_addr::Ipv6Addr as core::ops::bit::BitAndAssign<&core::net::ip_addr::Ipv6Addr>>::bitand_assign
 .text._ZN76_$LT$core..net..ip_addr..Ipv6Addr$u20$as$u20$core..ops..bit..BitOrAssign$GT$12bitor_assign17h150207ed9de0ddf1E
                0x0000000040025720      0x178 bin/obj/rslib.a(core-9bc28a7f9131c3bd.core.d226853cd57cf678-cgu.0.rcgu.o)
                0x0000000040025720                <core::net::ip_addr::Ipv6Addr as core::ops::bit::BitOrAssign>::bitor_assign
 .text._ZN116_$LT$core..net..ip_addr..Ipv6Addr$u20$as$u20$core..ops..bit..BitOrAssign$LT$$RF$core..net..ip_addr..Ipv6Addr$GT$$GT$12bitor_assign17h867af2f46a854249E
                0x0000000040025898      0x1d0 bin/obj/rslib.a(core-9bc28a7f9131c3bd.core.d226853cd57cf678-cgu.0.rcgu.o)
                0x0000000040025898                <core::net::ip_addr::Ipv6Addr as core::ops::bit::BitOrAssign<&core::net::ip_addr::Ipv6Addr>>::bitor_assign
 .text.unlikely._ZN4core9panicking11panic_const24panic_const_add_overflow17h09bbca75f0d2d61fE
                0x0000000040025a68       0x34 bin/obj/rslib.a(core-9bc28a7f9131c3bd.core.d226853cd57cf678-cgu.0.rcgu.o)
                0x0000000040025a68                core::panicking::panic_const::panic_const_add_overflow
 .text.unlikely._ZN4core9panicking11panic_const24panic_const_sub_overflow17h6185b6d642ecac0cE
                0x0000000040025a9c       0x34 bin/obj/rslib.a(core-9bc28a7f9131c3bd.core.d226853cd57cf678-cgu.0.rcgu.o)
                0x0000000040025a9c                core::panicking::panic_const::panic_const_sub_overflow
 .text.unlikely._ZN4core9panicking11panic_const24panic_const_mul_overflow17hdddcd93d0c341f83E
                0x0000000040025ad0       0x34 bin/obj/rslib.a(core-9bc28a7f9131c3bd.core.d226853cd57cf678-cgu.0.rcgu.o)
                0x0000000040025ad0                core::panicking::panic_const::panic_const_mul_overflow
 .text.unlikely._ZN4core9panicking11panic_const24panic_const_div_overflow17hf37a4d498832d184E
                0x0000000040025b04       0x34 bin/obj/rslib.a(core-9bc28a7f9131c3bd.core.d226853cd57cf678-cgu.0.rcgu.o)
                0x0000000040025b04                core::panicking::panic_const::panic_const_div_overflow
 .text.unlikely._ZN4core9panicking11panic_const24panic_const_rem_overflow17h8add595998330e0fE
                0x0000000040025b38       0x34 bin/obj/rslib.a(core-9bc28a7f9131c3bd.core.d226853cd57cf678-cgu.0.rcgu.o)
                0x0000000040025b38                core::panicking::panic_const::panic_const_rem_overflow
 .text.unlikely._ZN4core9panicking11panic_const24panic_const_neg_overflow17h85101c93d678ce29E
                0x0000000040025b6c       0x34 bin/obj/rslib.a(core-9bc28a7f9131c3bd.core.d226853cd57cf678-cgu.0.rcgu.o)
                0x0000000040025b6c                core::panicking::panic_const::panic_const_neg_overflow
 .text.unlikely._ZN4core9panicking11panic_const24panic_const_shr_overflow17h948e1fa156a221feE
                0x0000000040025ba0       0x34 bin/obj/rslib.a(core-9bc28a7f9131c3bd.core.d226853cd57cf678-cgu.0.rcgu.o)
                0x0000000040025ba0                core::panicking::panic_const::panic_const_shr_overflow
 .text.unlikely._ZN4core9panicking11panic_const24panic_const_shl_overflow17h374c77fa781c1c71E
                0x0000000040025bd4       0x34 bin/obj/rslib.a(core-9bc28a7f9131c3bd.core.d226853cd57cf678-cgu.0.rcgu.o)
                0x0000000040025bd4                core::panicking::panic_const::panic_const_shl_overflow
 .text.unlikely._ZN4core9panicking11panic_const23panic_const_div_by_zero17h9c906680fbd57726E
                0x0000000040025c08       0x34 bin/obj/rslib.a(core-9bc28a7f9131c3bd.core.d226853cd57cf678-cgu.0.rcgu.o)
                0x0000000040025c08                core::panicking::panic_const::panic_const_div_by_zero
 .text.unlikely._ZN4core9panicking11panic_const23panic_const_rem_by_zero17haf724cdffa12d889E
                0x0000000040025c3c       0x34 bin/obj/rslib.a(core-9bc28a7f9131c3bd.core.d226853cd57cf678-cgu.0.rcgu.o)
                0x0000000040025c3c                core::panicking::panic_const::panic_const_rem_by_zero
 .text.unlikely._ZN4core9panicking11panic_const29panic_const_coroutine_resumed17h9e3a0eddf3372144E
                0x0000000040025c70       0x34 bin/obj/rslib.a(core-9bc28a7f9131c3bd.core.d226853cd57cf678-cgu.0.rcgu.o)
                0x0000000040025c70                core::panicking::panic_const::panic_const_coroutine_resumed
 .text.unlikely._ZN4core9panicking11panic_const28panic_const_async_fn_resumed17h961e115003127a3cE
                0x0000000040025ca4       0x34 bin/obj/rslib.a(core-9bc28a7f9131c3bd.core.d226853cd57cf678-cgu.0.rcgu.o)
                0x0000000040025ca4                core::panicking::panic_const::panic_const_async_fn_resumed
 .text.unlikely._ZN4core9panicking11panic_const32panic_const_async_gen_fn_resumed17h43d003c7e7873a83E
                0x0000000040025cd8       0x34 bin/obj/rslib.a(core-9bc28a7f9131c3bd.core.d226853cd57cf678-cgu.0.rcgu.o)
                0x0000000040025cd8                core::panicking::panic_const::panic_const_async_gen_fn_resumed
 .text.unlikely._ZN4core9panicking11panic_const23panic_const_gen_fn_none17he8fcd47bf3fe815aE
                0x0000000040025d0c       0x34 bin/obj/rslib.a(core-9bc28a7f9131c3bd.core.d226853cd57cf678-cgu.0.rcgu.o)
                0x0000000040025d0c                core::panicking::panic_const::panic_const_gen_fn_none
 .text.unlikely._ZN4core9panicking11panic_const35panic_const_coroutine_resumed_panic17h60cdbadeda3d0b45E
                0x0000000040025d40       0x34 bin/obj/rslib.a(core-9bc28a7f9131c3bd.core.d226853cd57cf678-cgu.0.rcgu.o)
                0x0000000040025d40                core::panicking::panic_const::panic_const_coroutine_resumed_panic
 .text.unlikely._ZN4core9panicking11panic_const34panic_const_async_fn_resumed_panic17h41279bf4e04bbe30E
                0x0000000040025d74       0x34 bin/obj/rslib.a(core-9bc28a7f9131c3bd.core.d226853cd57cf678-cgu.0.rcgu.o)
                0x0000000040025d74                core::panicking::panic_const::panic_const_async_fn_resumed_panic
 .text.unlikely._ZN4core9panicking11panic_const38panic_const_async_gen_fn_resumed_panic17hdb2e89ad8af37caeE
                0x0000000040025da8       0x34 bin/obj/rslib.a(core-9bc28a7f9131c3bd.core.d226853cd57cf678-cgu.0.rcgu.o)
                0x0000000040025da8                core::panicking::panic_const::panic_const_async_gen_fn_resumed_panic
 .text.unlikely._ZN4core9panicking11panic_const29panic_const_gen_fn_none_panic17h9c1d6bc2e3cae8c5E
                0x0000000040025ddc       0x34 bin/obj/rslib.a(core-9bc28a7f9131c3bd.core.d226853cd57cf678-cgu.0.rcgu.o)
                0x0000000040025ddc                core::panicking::panic_const::panic_const_gen_fn_none_panic
 .text.unlikely._ZN4core9panicking11panic_const34panic_const_coroutine_resumed_drop17h597a694b7c660eb3E
                0x0000000040025e10       0x34 bin/obj/rslib.a(core-9bc28a7f9131c3bd.core.d226853cd57cf678-cgu.0.rcgu.o)
                0x0000000040025e10                core::panicking::panic_const::panic_const_coroutine_resumed_drop
 .text.unlikely._ZN4core9panicking11panic_const33panic_const_async_fn_resumed_drop17h569885c89a1c61d0E
                0x0000000040025e44       0x34 bin/obj/rslib.a(core-9bc28a7f9131c3bd.core.d226853cd57cf678-cgu.0.rcgu.o)
                0x0000000040025e44                core::panicking::panic_const::panic_const_async_fn_resumed_drop
 .text.unlikely._ZN4core9panicking11panic_const37panic_const_async_gen_fn_resumed_drop17hfc398b03e792be18E
                0x0000000040025e78       0x34 bin/obj/rslib.a(core-9bc28a7f9131c3bd.core.d226853cd57cf678-cgu.0.rcgu.o)
                0x0000000040025e78                core::panicking::panic_const::panic_const_async_gen_fn_resumed_drop
 .text.unlikely._ZN4core9panicking11panic_const28panic_const_gen_fn_none_drop17h106545b3c806a555E
                0x0000000040025eac       0x34 bin/obj/rslib.a(core-9bc28a7f9131c3bd.core.d226853cd57cf678-cgu.0.rcgu.o)
                0x0000000040025eac                core::panicking::panic_const::panic_const_gen_fn_none_drop
 .text._ZN46_$LT$i8$u20$as$u20$core..pat..RangePattern$GT$7sub_one17h2b29dd8b62971d92E
                0x0000000040025ee0       0x48 bin/obj/rslib.a(core-9bc28a7f9131c3bd.core.d226853cd57cf678-cgu.0.rcgu.o)
                0x0000000040025ee0                <i8 as core::pat::RangePattern>::sub_one
 .text._ZN47_$LT$i16$u20$as$u20$core..pat..RangePattern$GT$7sub_one17hb044333da7ccc750E
                0x0000000040025f28       0x48 bin/obj/rslib.a(core-9bc28a7f9131c3bd.core.d226853cd57cf678-cgu.0.rcgu.o)
                0x0000000040025f28                <i16 as core::pat::RangePattern>::sub_one
 .text._ZN47_$LT$i32$u20$as$u20$core..pat..RangePattern$GT$7sub_one17hda3282b17420c2afE
                0x0000000040025f70       0x3c bin/obj/rslib.a(core-9bc28a7f9131c3bd.core.d226853cd57cf678-cgu.0.rcgu.o)
                0x0000000040025f70                <i32 as core::pat::RangePattern>::sub_one
 .text._ZN47_$LT$i64$u20$as$u20$core..pat..RangePattern$GT$7sub_one17h54812acc40be4677E
                0x0000000040025fac       0x3c bin/obj/rslib.a(core-9bc28a7f9131c3bd.core.d226853cd57cf678-cgu.0.rcgu.o)
                0x0000000040025fac                <i64 as core::pat::RangePattern>::sub_one
                0x0000000040025fac                <isize as core::pat::RangePattern>::sub_one
 .text._ZN48_$LT$i128$u20$as$u20$core..pat..RangePattern$GT$7sub_one17h0517e37a5fa241b3E
                0x0000000040025fe8       0x4c bin/obj/rslib.a(core-9bc28a7f9131c3bd.core.d226853cd57cf678-cgu.0.rcgu.o)
                0x0000000040025fe8                <i128 as core::pat::RangePattern>::sub_one
 .text._ZN46_$LT$u8$u20$as$u20$core..pat..RangePattern$GT$7sub_one17h5da6ddfeeef036c0E
                0x0000000040026034       0x40 bin/obj/rslib.a(core-9bc28a7f9131c3bd.core.d226853cd57cf678-cgu.0.rcgu.o)
                0x0000000040026034                <u8 as core::pat::RangePattern>::sub_one
 .text._ZN47_$LT$u16$u20$as$u20$core..pat..RangePattern$GT$7sub_one17hd69034e65800412bE
                0x0000000040026074       0x40 bin/obj/rslib.a(core-9bc28a7f9131c3bd.core.d226853cd57cf678-cgu.0.rcgu.o)
                0x0000000040026074                <u16 as core::pat::RangePattern>::sub_one
 .text._ZN47_$LT$u32$u20$as$u20$core..pat..RangePattern$GT$7sub_one17hd00713bc041f56d8E
                0x00000000400260b4       0x3c bin/obj/rslib.a(core-9bc28a7f9131c3bd.core.d226853cd57cf678-cgu.0.rcgu.o)
                0x00000000400260b4                <u32 as core::pat::RangePattern>::sub_one
 .text._ZN47_$LT$u64$u20$as$u20$core..pat..RangePattern$GT$7sub_one17hcc329b3b588be552E
                0x00000000400260f0       0x3c bin/obj/rslib.a(core-9bc28a7f9131c3bd.core.d226853cd57cf678-cgu.0.rcgu.o)
                0x00000000400260f0                <usize as core::pat::RangePattern>::sub_one
                0x00000000400260f0                <u64 as core::pat::RangePattern>::sub_one
 .text._ZN48_$LT$u128$u20$as$u20$core..pat..RangePattern$GT$7sub_one17hd63030423cb652deE
                0x000000004002612c       0x4c bin/obj/rslib.a(core-9bc28a7f9131c3bd.core.d226853cd57cf678-cgu.0.rcgu.o)
                0x000000004002612c                <u128 as core::pat::RangePattern>::sub_one
 .text._ZN65_$LT$core..sync..atomic..AtomicI8$u20$as$u20$core..fmt..Debug$GT$3fmt17he2ae289f34595ef8E
                0x0000000040026178        0x8 bin/obj/rslib.a(core-9bc28a7f9131c3bd.core.d226853cd57cf678-cgu.0.rcgu.o)
                0x0000000040026178                <core::sync::atomic::AtomicI8 as core::fmt::Debug>::fmt
 .text._ZN65_$LT$core..sync..atomic..AtomicU8$u20$as$u20$core..fmt..Debug$GT$3fmt17hacd5613fd5fd09baE
                0x0000000040026180        0x8 bin/obj/rslib.a(core-9bc28a7f9131c3bd.core.d226853cd57cf678-cgu.0.rcgu.o)
                0x0000000040026180                <core::sync::atomic::AtomicU8 as core::fmt::Debug>::fmt
 .text._ZN66_$LT$core..sync..atomic..AtomicI16$u20$as$u20$core..fmt..Debug$GT$3fmt17h7e71e5d78fce954aE
                0x0000000040026188       0xe4 bin/obj/rslib.a(core-9bc28a7f9131c3bd.core.d226853cd57cf678-cgu.0.rcgu.o)
                0x0000000040026188                <core::sync::atomic::AtomicI16 as core::fmt::Debug>::fmt
 .text._ZN66_$LT$core..sync..atomic..AtomicU16$u20$as$u20$core..fmt..Debug$GT$3fmt17h13a105422202613fE
                0x000000004002626c       0xe4 bin/obj/rslib.a(core-9bc28a7f9131c3bd.core.d226853cd57cf678-cgu.0.rcgu.o)
                0x000000004002626c                <core::sync::atomic::AtomicU16 as core::fmt::Debug>::fmt
 .text._ZN66_$LT$core..sync..atomic..AtomicI32$u20$as$u20$core..fmt..Debug$GT$3fmt17h3c755d9aff3c33ceE
                0x0000000040026350       0xe4 bin/obj/rslib.a(core-9bc28a7f9131c3bd.core.d226853cd57cf678-cgu.0.rcgu.o)
                0x0000000040026350                <core::sync::atomic::AtomicI32 as core::fmt::Debug>::fmt
 .text._ZN66_$LT$core..sync..atomic..AtomicU32$u20$as$u20$core..fmt..Debug$GT$3fmt17h1eb2bd660e4f3618E
                0x0000000040026434       0xe4 bin/obj/rslib.a(core-9bc28a7f9131c3bd.core.d226853cd57cf678-cgu.0.rcgu.o)
                0x0000000040026434                <core::sync::atomic::AtomicU32 as core::fmt::Debug>::fmt
 .text._ZN66_$LT$core..sync..atomic..AtomicI64$u20$as$u20$core..fmt..Debug$GT$3fmt17h98d1584d85bc4c8aE
                0x0000000040026518       0xe4 bin/obj/rslib.a(core-9bc28a7f9131c3bd.core.d226853cd57cf678-cgu.0.rcgu.o)
                0x0000000040026518                <core::sync::atomic::AtomicIsize as core::fmt::Debug>::fmt
                0x0000000040026518                <core::sync::atomic::AtomicI64 as core::fmt::Debug>::fmt
 .text._ZN66_$LT$core..sync..atomic..AtomicU64$u20$as$u20$core..fmt..Debug$GT$3fmt17hbad4c174e8a81999E
                0x00000000400265fc       0xe4 bin/obj/rslib.a(core-9bc28a7f9131c3bd.core.d226853cd57cf678-cgu.0.rcgu.o)
                0x00000000400265fc                <core::sync::atomic::AtomicUsize as core::fmt::Debug>::fmt
                0x00000000400265fc                <core::sync::atomic::AtomicU64 as core::fmt::Debug>::fmt
 .text._ZN67_$LT$core..sync..atomic..AtomicI128$u20$as$u20$core..fmt..Debug$GT$3fmt17he8c61afa40a7a067E
                0x00000000400266e0       0x18 bin/obj/rslib.a(core-9bc28a7f9131c3bd.core.d226853cd57cf678-cgu.0.rcgu.o)
                0x00000000400266e0                <core::sync::atomic::AtomicI128 as core::fmt::Debug>::fmt
 .text._ZN67_$LT$core..sync..atomic..AtomicU128$u20$as$u20$core..fmt..Debug$GT$3fmt17he7236194a7aa849cE
                0x00000000400266f8       0x18 bin/obj/rslib.a(core-9bc28a7f9131c3bd.core.d226853cd57cf678-cgu.0.rcgu.o)
                0x00000000400266f8                <core::sync::atomic::AtomicU128 as core::fmt::Debug>::fmt
 .text._ZN55_$LT$f32$u20$as$u20$core..fmt..float..GeneralFormat$GT$44already_rounded_value_should_use_exponential17h2598a7ff80721232E
                0x0000000040026710       0x40 bin/obj/rslib.a(core-9bc28a7f9131c3bd.core.d226853cd57cf678-cgu.0.rcgu.o)
                0x0000000040026710                <f32 as core::fmt::float::GeneralFormat>::already_rounded_value_should_use_exponential
 .text._ZN55_$LT$f64$u20$as$u20$core..fmt..float..GeneralFormat$GT$44already_rounded_value_should_use_exponential17hae47aaa92da897ecE
                0x0000000040026750       0x34 bin/obj/rslib.a(core-9bc28a7f9131c3bd.core.d226853cd57cf678-cgu.0.rcgu.o)
                0x0000000040026750                <f64 as core::fmt::float::GeneralFormat>::already_rounded_value_should_use_exponential
 .text._ZN4core3fmt5float50_$LT$impl$u20$core..fmt..Debug$u20$for$u20$f32$GT$3fmt17h1618501ca3fb74b9E
                0x0000000040026784       0x78 bin/obj/rslib.a(core-9bc28a7f9131c3bd.core.d226853cd57cf678-cgu.0.rcgu.o)
                0x0000000040026784                core::fmt::float::<impl core::fmt::Debug for f32>::fmt
 .text._ZN4core3fmt5float52_$LT$impl$u20$core..fmt..Display$u20$for$u20$f32$GT$3fmt17h5b51ebaab4dd56eaE
                0x00000000400267fc       0x2c bin/obj/rslib.a(core-9bc28a7f9131c3bd.core.d226853cd57cf678-cgu.0.rcgu.o)
                0x00000000400267fc                core::fmt::float::<impl core::fmt::Display for f32>::fmt
 .text._ZN4core3fmt5float53_$LT$impl$u20$core..fmt..LowerExp$u20$for$u20$f32$GT$3fmt17h1daea64593b06b7cE
                0x0000000040026828       0x38 bin/obj/rslib.a(core-9bc28a7f9131c3bd.core.d226853cd57cf678-cgu.0.rcgu.o)
                0x0000000040026828                core::fmt::float::<impl core::fmt::LowerExp for f32>::fmt
 .text._ZN4core3fmt5float53_$LT$impl$u20$core..fmt..UpperExp$u20$for$u20$f32$GT$3fmt17hf48da9606493346aE
                0x0000000040026860       0x38 bin/obj/rslib.a(core-9bc28a7f9131c3bd.core.d226853cd57cf678-cgu.0.rcgu.o)
                0x0000000040026860                core::fmt::float::<impl core::fmt::UpperExp for f32>::fmt
 .text._ZN4core3fmt5float50_$LT$impl$u20$core..fmt..Debug$u20$for$u20$f64$GT$3fmt17h26b15e90d5f8e321E
                0x0000000040026898       0x70 bin/obj/rslib.a(core-9bc28a7f9131c3bd.core.d226853cd57cf678-cgu.0.rcgu.o)
                0x0000000040026898                core::fmt::float::<impl core::fmt::Debug for f64>::fmt
 .text._ZN4core3fmt5float52_$LT$impl$u20$core..fmt..Display$u20$for$u20$f64$GT$3fmt17h955b8ce4f27e2d0aE
                0x0000000040026908       0x2c bin/obj/rslib.a(core-9bc28a7f9131c3bd.core.d226853cd57cf678-cgu.0.rcgu.o)
                0x0000000040026908                core::fmt::float::<impl core::fmt::Display for f64>::fmt
 .text._ZN4core3fmt5float53_$LT$impl$u20$core..fmt..LowerExp$u20$for$u20$f64$GT$3fmt17h4bd46372c2eb809cE
                0x0000000040026934       0x38 bin/obj/rslib.a(core-9bc28a7f9131c3bd.core.d226853cd57cf678-cgu.0.rcgu.o)
                0x0000000040026934                core::fmt::float::<impl core::fmt::LowerExp for f64>::fmt
 .text._ZN4core3fmt5float53_$LT$impl$u20$core..fmt..UpperExp$u20$for$u20$f64$GT$3fmt17hf6b2efbff9416bbcE
                0x000000004002696c       0x38 bin/obj/rslib.a(core-9bc28a7f9131c3bd.core.d226853cd57cf678-cgu.0.rcgu.o)
                0x000000004002696c                core::fmt::float::<impl core::fmt::UpperExp for f64>::fmt
 .text._ZN4core3fmt5float50_$LT$impl$u20$core..fmt..Debug$u20$for$u20$f16$GT$3fmt17hb615927aaecb98c6E
                0x00000000400269a4       0x84 bin/obj/rslib.a(core-9bc28a7f9131c3bd.core.d226853cd57cf678-cgu.0.rcgu.o)
                0x00000000400269a4                core::fmt::float::<impl core::fmt::Debug for f16>::fmt
 .text._ZN4core3fmt5float52_$LT$impl$u20$core..fmt..Display$u20$for$u20$f16$GT$3fmt17h2e036a294ccdb083E
                0x0000000040026a28       0x2c bin/obj/rslib.a(core-9bc28a7f9131c3bd.core.d226853cd57cf678-cgu.0.rcgu.o)
                0x0000000040026a28                core::fmt::float::<impl core::fmt::Display for f16>::fmt
 .text._ZN4core3fmt5float53_$LT$impl$u20$core..fmt..LowerExp$u20$for$u20$f16$GT$3fmt17he4964c3c68d3050eE
                0x0000000040026a54       0x38 bin/obj/rslib.a(core-9bc28a7f9131c3bd.core.d226853cd57cf678-cgu.0.rcgu.o)
                0x0000000040026a54                core::fmt::float::<impl core::fmt::LowerExp for f16>::fmt
 .text._ZN4core3fmt5float53_$LT$impl$u20$core..fmt..UpperExp$u20$for$u20$f16$GT$3fmt17h0e265bf67a391109E
                0x0000000040026a8c       0x38 bin/obj/rslib.a(core-9bc28a7f9131c3bd.core.d226853cd57cf678-cgu.0.rcgu.o)
                0x0000000040026a8c                core::fmt::float::<impl core::fmt::UpperExp for f16>::fmt
 .text._ZN71_$LT$core..fmt..num..Binary$u20$as$u20$core..fmt..num..GenericRadix$GT$5digit17h7c403e80f06b72b6E
                0x0000000040026ac4       0x6c bin/obj/rslib.a(core-9bc28a7f9131c3bd.core.d226853cd57cf678-cgu.0.rcgu.o)
                0x0000000040026ac4                <core::fmt::num::Binary as core::fmt::num::GenericRadix>::digit
 .text._ZN70_$LT$core..fmt..num..Octal$u20$as$u20$core..fmt..num..GenericRadix$GT$5digit17ha79a12ce3f21635fE
                0x0000000040026b30       0x6c bin/obj/rslib.a(core-9bc28a7f9131c3bd.core.d226853cd57cf678-cgu.0.rcgu.o)
                0x0000000040026b30                <core::fmt::num::Octal as core::fmt::num::GenericRadix>::digit
 .text._ZN73_$LT$core..fmt..num..LowerHex$u20$as$u20$core..fmt..num..GenericRadix$GT$5digit17he78247163a64d6c3E
                0x0000000040026b9c       0x7c bin/obj/rslib.a(core-9bc28a7f9131c3bd.core.d226853cd57cf678-cgu.0.rcgu.o)
                0x0000000040026b9c                <core::fmt::num::LowerHex as core::fmt::num::GenericRadix>::digit
 .text._ZN73_$LT$core..fmt..num..UpperHex$u20$as$u20$core..fmt..num..GenericRadix$GT$5digit17h89661caf9693933bE
                0x0000000040026c18       0x7c bin/obj/rslib.a(core-9bc28a7f9131c3bd.core.d226853cd57cf678-cgu.0.rcgu.o)
                0x0000000040026c18                <core::fmt::num::UpperHex as core::fmt::num::GenericRadix>::digit
 .text._ZN4core3fmt3num50_$LT$impl$u20$core..fmt..Binary$u20$for$u20$i8$GT$3fmt17h74a362e411b3ee60E
                0x0000000040026c94       0x70 bin/obj/rslib.a(core-9bc28a7f9131c3bd.core.d226853cd57cf678-cgu.0.rcgu.o)
                0x0000000040026c94                core::fmt::num::<impl core::fmt::Binary for i8>::fmt
                0x0000000040026c94                core::fmt::num::<impl core::fmt::Binary for u8>::fmt
 .text._ZN4core3fmt3num49_$LT$impl$u20$core..fmt..Octal$u20$for$u20$i8$GT$3fmt17h3114be13a4c04fd3E
                0x0000000040026d04       0x70 bin/obj/rslib.a(core-9bc28a7f9131c3bd.core.d226853cd57cf678-cgu.0.rcgu.o)
                0x0000000040026d04                core::fmt::num::<impl core::fmt::Octal for i8>::fmt
                0x0000000040026d04                core::fmt::num::<impl core::fmt::Octal for u8>::fmt
 .text._ZN4core3fmt3num52_$LT$impl$u20$core..fmt..LowerHex$u20$for$u20$i8$GT$3fmt17h50d2757cdc5e6d97E
                0x0000000040026d74       0x80 bin/obj/rslib.a(core-9bc28a7f9131c3bd.core.d226853cd57cf678-cgu.0.rcgu.o)
                0x0000000040026d74                core::fmt::num::<impl core::fmt::LowerHex for i8>::fmt
                0x0000000040026d74                core::fmt::num::<impl core::fmt::LowerHex for u8>::fmt
 .text._ZN4core3fmt3num52_$LT$impl$u20$core..fmt..UpperHex$u20$for$u20$i8$GT$3fmt17h515628f8134b2c92E
                0x0000000040026df4       0x80 bin/obj/rslib.a(core-9bc28a7f9131c3bd.core.d226853cd57cf678-cgu.0.rcgu.o)
                0x0000000040026df4                core::fmt::num::<impl core::fmt::UpperHex for i8>::fmt
                0x0000000040026df4                core::fmt::num::<impl core::fmt::UpperHex for u8>::fmt
 .text._ZN4core3fmt3num51_$LT$impl$u20$core..fmt..Binary$u20$for$u20$i16$GT$3fmt17h2c3b84fc087d3172E
                0x0000000040026e74       0x70 bin/obj/rslib.a(core-9bc28a7f9131c3bd.core.d226853cd57cf678-cgu.0.rcgu.o)
                0x0000000040026e74                core::fmt::num::<impl core::fmt::Binary for u16>::fmt
                0x0000000040026e74                core::fmt::num::<impl core::fmt::Binary for i16>::fmt
 .text._ZN4core3fmt3num50_$LT$impl$u20$core..fmt..Octal$u20$for$u20$i16$GT$3fmt17hdf824975fe3e12f1E
                0x0000000040026ee4       0x70 bin/obj/rslib.a(core-9bc28a7f9131c3bd.core.d226853cd57cf678-cgu.0.rcgu.o)
                0x0000000040026ee4                core::fmt::num::<impl core::fmt::Octal for u16>::fmt
                0x0000000040026ee4                core::fmt::num::<impl core::fmt::Octal for i16>::fmt
 .text._ZN4core3fmt3num53_$LT$impl$u20$core..fmt..LowerHex$u20$for$u20$i16$GT$3fmt17h270f8a46e776c154E
                0x0000000040026f54       0x80 bin/obj/rslib.a(core-9bc28a7f9131c3bd.core.d226853cd57cf678-cgu.0.rcgu.o)
                0x0000000040026f54                core::fmt::num::<impl core::fmt::LowerHex for u16>::fmt
                0x0000000040026f54                core::fmt::num::<impl core::fmt::LowerHex for i16>::fmt
 .text._ZN4core3fmt3num53_$LT$impl$u20$core..fmt..UpperHex$u20$for$u20$i16$GT$3fmt17h31408e66f3da8b08E
                0x0000000040026fd4       0x80 bin/obj/rslib.a(core-9bc28a7f9131c3bd.core.d226853cd57cf678-cgu.0.rcgu.o)
                0x0000000040026fd4                core::fmt::num::<impl core::fmt::UpperHex for i16>::fmt
                0x0000000040026fd4                core::fmt::num::<impl core::fmt::UpperHex for u16>::fmt
 .text._ZN4core3fmt3num51_$LT$impl$u20$core..fmt..Binary$u20$for$u20$i32$GT$3fmt17h9a834ecc26fff921E
                0x0000000040027054       0x70 bin/obj/rslib.a(core-9bc28a7f9131c3bd.core.d226853cd57cf678-cgu.0.rcgu.o)
                0x0000000040027054                core::fmt::num::<impl core::fmt::Binary for i32>::fmt
                0x0000000040027054                core::fmt::num::<impl core::fmt::Binary for u32>::fmt
 .text._ZN4core3fmt3num50_$LT$impl$u20$core..fmt..Octal$u20$for$u20$i32$GT$3fmt17h994e8088423e42fcE
                0x00000000400270c4       0x70 bin/obj/rslib.a(core-9bc28a7f9131c3bd.core.d226853cd57cf678-cgu.0.rcgu.o)
                0x00000000400270c4                core::fmt::num::<impl core::fmt::Octal for u32>::fmt
                0x00000000400270c4                core::fmt::num::<impl core::fmt::Octal for i32>::fmt
 .text._ZN4core3fmt3num53_$LT$impl$u20$core..fmt..LowerHex$u20$for$u20$i32$GT$3fmt17hdd9eafe35960b8c3E
                0x0000000040027134       0x80 bin/obj/rslib.a(core-9bc28a7f9131c3bd.core.d226853cd57cf678-cgu.0.rcgu.o)
                0x0000000040027134                core::fmt::num::<impl core::fmt::LowerHex for u32>::fmt
                0x0000000040027134                core::fmt::num::<impl core::fmt::LowerHex for i32>::fmt
 .text._ZN4core3fmt3num53_$LT$impl$u20$core..fmt..UpperHex$u20$for$u20$i32$GT$3fmt17hd95cc40dfbc95b30E
                0x00000000400271b4       0x80 bin/obj/rslib.a(core-9bc28a7f9131c3bd.core.d226853cd57cf678-cgu.0.rcgu.o)
                0x00000000400271b4                core::fmt::num::<impl core::fmt::UpperHex for u32>::fmt
                0x00000000400271b4                core::fmt::num::<impl core::fmt::UpperHex for i32>::fmt
 .text._ZN4core3fmt3num51_$LT$impl$u20$core..fmt..Binary$u20$for$u20$i64$GT$3fmt17hb53a49f388d0dde6E
                0x0000000040027234       0x70 bin/obj/rslib.a(core-9bc28a7f9131c3bd.core.d226853cd57cf678-cgu.0.rcgu.o)
                0x0000000040027234                core::fmt::num::<impl core::fmt::Binary for isize>::fmt
                0x0000000040027234                core::fmt::num::<impl core::fmt::Binary for i64>::fmt
                0x0000000040027234                core::fmt::num::<impl core::fmt::Binary for u64>::fmt
                0x0000000040027234                core::fmt::num::<impl core::fmt::Binary for usize>::fmt
 .text._ZN4core3fmt3num50_$LT$impl$u20$core..fmt..Octal$u20$for$u20$i64$GT$3fmt17h0afd14c2035f70f9E
                0x00000000400272a4       0x70 bin/obj/rslib.a(core-9bc28a7f9131c3bd.core.d226853cd57cf678-cgu.0.rcgu.o)
                0x00000000400272a4                core::fmt::num::<impl core::fmt::Octal for isize>::fmt
                0x00000000400272a4                core::fmt::num::<impl core::fmt::Octal for usize>::fmt
                0x00000000400272a4                core::fmt::num::<impl core::fmt::Octal for i64>::fmt
                0x00000000400272a4                core::fmt::num::<impl core::fmt::Octal for u64>::fmt
 .text._ZN4core3fmt3num53_$LT$impl$u20$core..fmt..LowerHex$u20$for$u20$i64$GT$3fmt17hac8ca6b75546e942E
                0x0000000040027314       0x80 bin/obj/rslib.a(core-9bc28a7f9131c3bd.core.d226853cd57cf678-cgu.0.rcgu.o)
                0x0000000040027314                core::fmt::num::<impl core::fmt::LowerHex for i64>::fmt
                0x0000000040027314                core::fmt::num::<impl core::fmt::LowerHex for usize>::fmt
                0x0000000040027314                core::fmt::num::<impl core::fmt::LowerHex for u64>::fmt
                0x0000000040027314                core::fmt::num::<impl core::fmt::LowerHex for isize>::fmt
 .text._ZN4core3fmt3num53_$LT$impl$u20$core..fmt..UpperHex$u20$for$u20$i64$GT$3fmt17hb53fc3a4d0831175E
                0x0000000040027394       0x80 bin/obj/rslib.a(core-9bc28a7f9131c3bd.core.d226853cd57cf678-cgu.0.rcgu.o)
                0x0000000040027394                core::fmt::num::<impl core::fmt::UpperHex for isize>::fmt
                0x0000000040027394                core::fmt::num::<impl core::fmt::UpperHex for usize>::fmt
                0x0000000040027394                core::fmt::num::<impl core::fmt::UpperHex for i64>::fmt
                0x0000000040027394                core::fmt::num::<impl core::fmt::UpperHex for u64>::fmt
 .text._ZN4core3fmt3num52_$LT$impl$u20$core..fmt..Binary$u20$for$u20$i128$GT$3fmt17h05a6e57f2fa45912E
                0x0000000040027414       0x94 bin/obj/rslib.a(core-9bc28a7f9131c3bd.core.d226853cd57cf678-cgu.0.rcgu.o)
                0x0000000040027414                core::fmt::num::<impl core::fmt::Binary for u128>::fmt
                0x0000000040027414                core::fmt::num::<impl core::fmt::Binary for i128>::fmt
 .text._ZN4core3fmt3num51_$LT$impl$u20$core..fmt..Octal$u20$for$u20$i128$GT$3fmt17h768cfbb3dd53fd65E
                0x00000000400274a8       0x94 bin/obj/rslib.a(core-9bc28a7f9131c3bd.core.d226853cd57cf678-cgu.0.rcgu.o)
                0x00000000400274a8                core::fmt::num::<impl core::fmt::Octal for i128>::fmt
                0x00000000400274a8                core::fmt::num::<impl core::fmt::Octal for u128>::fmt
 .text._ZN4core3fmt3num54_$LT$impl$u20$core..fmt..LowerHex$u20$for$u20$i128$GT$3fmt17h800c8a6325820112E
                0x000000004002753c       0xa4 bin/obj/rslib.a(core-9bc28a7f9131c3bd.core.d226853cd57cf678-cgu.0.rcgu.o)
                0x000000004002753c                core::fmt::num::<impl core::fmt::LowerHex for u128>::fmt
                0x000000004002753c                core::fmt::num::<impl core::fmt::LowerHex for i128>::fmt
 .text._ZN4core3fmt3num54_$LT$impl$u20$core..fmt..UpperHex$u20$for$u20$i128$GT$3fmt17h0e718b459d95b73fE
                0x00000000400275e0       0xa4 bin/obj/rslib.a(core-9bc28a7f9131c3bd.core.d226853cd57cf678-cgu.0.rcgu.o)
                0x00000000400275e0                core::fmt::num::<impl core::fmt::UpperHex for u128>::fmt
                0x00000000400275e0                core::fmt::num::<impl core::fmt::UpperHex for i128>::fmt
 .text._ZN4core3fmt3num49_$LT$impl$u20$core..fmt..Debug$u20$for$u20$i8$GT$3fmt17h5c9b6d2c1856f277E
                0x0000000040027684      0x190 bin/obj/rslib.a(core-9bc28a7f9131c3bd.core.d226853cd57cf678-cgu.0.rcgu.o)
 .text._ZN4core3fmt3num51_$LT$impl$u20$core..fmt..Debug$u20$for$u20$i128$GT$3fmt17h2f429bf78a6a230cE
                0x0000000040027814      0x16c bin/obj/rslib.a(core-9bc28a7f9131c3bd.core.d226853cd57cf678-cgu.0.rcgu.o)
 .text._ZN4core3fmt3num49_$LT$impl$u20$core..fmt..Debug$u20$for$u20$u8$GT$3fmt17hfe17a7b67c6f7fc8E
                0x0000000040027980      0x174 bin/obj/rslib.a(core-9bc28a7f9131c3bd.core.d226853cd57cf678-cgu.0.rcgu.o)
 .text._ZN4core3fmt3num50_$LT$impl$u20$core..fmt..Debug$u20$for$u20$u32$GT$3fmt17he2d1bcbcbf8f43cbE
                0x0000000040027af4       0xdc bin/obj/rslib.a(core-9bc28a7f9131c3bd.core.d226853cd57cf678-cgu.0.rcgu.o)
 .text._ZN4core3fmt3num51_$LT$impl$u20$core..fmt..Debug$u20$for$u20$u128$GT$3fmt17h8ae8d1bce63d318dE
                0x0000000040027bd0      0x14c bin/obj/rslib.a(core-9bc28a7f9131c3bd.core.d226853cd57cf678-cgu.0.rcgu.o)
 .text._ZN4core3fmt3num52_$LT$impl$u20$core..fmt..Debug$u20$for$u20$usize$GT$3fmt17h5eb109150a3d56a0E
                0x0000000040027d1c       0xdc bin/obj/rslib.a(core-9bc28a7f9131c3bd.core.d226853cd57cf678-cgu.0.rcgu.o)
 .text._ZN4core3fmt3num3imp51_$LT$impl$u20$core..fmt..Display$u20$for$u20$u8$GT$3fmt17he97f3e1038de1d43E
                0x0000000040027df8       0xac bin/obj/rslib.a(core-9bc28a7f9131c3bd.core.d226853cd57cf678-cgu.0.rcgu.o)
                0x0000000040027df8                core::fmt::num::imp::<impl core::fmt::Display for u8>::fmt
 .text._ZN4core3fmt3num3imp51_$LT$impl$u20$core..fmt..Display$u20$for$u20$i8$GT$3fmt17h20210465f6879ca7E
                0x0000000040027ea4       0xcc bin/obj/rslib.a(core-9bc28a7f9131c3bd.core.d226853cd57cf678-cgu.0.rcgu.o)
                0x0000000040027ea4                core::fmt::num::imp::<impl core::fmt::Display for i8>::fmt
 .text._ZN4core3fmt3num3imp20_$LT$impl$u20$u8$GT$4_fmt17h98f4d8aaedb3b5e5E
                0x0000000040027f70       0x90 bin/obj/rslib.a(core-9bc28a7f9131c3bd.core.d226853cd57cf678-cgu.0.rcgu.o)
                0x0000000040027f70                core::fmt::num::imp::<impl u8>::_fmt
 .text._ZN4core3fmt3num3imp52_$LT$impl$u20$core..fmt..Display$u20$for$u20$u16$GT$3fmt17hf6b41060961dc6b6E
                0x0000000040028000      0x104 bin/obj/rslib.a(core-9bc28a7f9131c3bd.core.d226853cd57cf678-cgu.0.rcgu.o)
                0x0000000040028000                core::fmt::num::imp::<impl core::fmt::Display for u16>::fmt
 .text._ZN4core3fmt3num3imp52_$LT$impl$u20$core..fmt..Display$u20$for$u20$i16$GT$3fmt17h206c284b324edceeE
                0x0000000040028104      0x11c bin/obj/rslib.a(core-9bc28a7f9131c3bd.core.d226853cd57cf678-cgu.0.rcgu.o)
                0x0000000040028104                core::fmt::num::imp::<impl core::fmt::Display for i16>::fmt
 .text._ZN4core3fmt3num3imp21_$LT$impl$u20$u16$GT$4_fmt17haf11c39c9cee40c0E
                0x0000000040028220      0x108 bin/obj/rslib.a(core-9bc28a7f9131c3bd.core.d226853cd57cf678-cgu.0.rcgu.o)
                0x0000000040028220                core::fmt::num::imp::<impl u16>::_fmt
 .text._ZN4core3fmt3num3imp52_$LT$impl$u20$core..fmt..Display$u20$for$u20$u32$GT$3fmt17hb3168b123ae8c8b2E
                0x0000000040028328      0x14c bin/obj/rslib.a(core-9bc28a7f9131c3bd.core.d226853cd57cf678-cgu.0.rcgu.o)
                0x0000000040028328                core::fmt::num::imp::<impl core::fmt::Display for u32>::fmt
 .text._ZN4core3fmt3num3imp52_$LT$impl$u20$core..fmt..Display$u20$for$u20$i32$GT$3fmt17h77c4529ce91d6e0fE
                0x0000000040028474      0x158 bin/obj/rslib.a(core-9bc28a7f9131c3bd.core.d226853cd57cf678-cgu.0.rcgu.o)
                0x0000000040028474                core::fmt::num::imp::<impl core::fmt::Display for i32>::fmt
 .text._ZN4core3fmt3num3imp21_$LT$impl$u20$u32$GT$4_fmt17h494e3b49f37b28b7E
                0x00000000400285cc      0x130 bin/obj/rslib.a(core-9bc28a7f9131c3bd.core.d226853cd57cf678-cgu.0.rcgu.o)
                0x00000000400285cc                core::fmt::num::imp::<impl u32>::_fmt
 .text._ZN4core3fmt3num3imp52_$LT$impl$u20$core..fmt..Display$u20$for$u20$u64$GT$3fmt17h132422e40f80ae64E
                0x00000000400286fc      0x158 bin/obj/rslib.a(core-9bc28a7f9131c3bd.core.d226853cd57cf678-cgu.0.rcgu.o)
                0x00000000400286fc                core::fmt::num::imp::<impl core::fmt::Display for u64>::fmt
                0x00000000400286fc                core::fmt::num::imp::<impl core::fmt::Display for usize>::fmt
 .text._ZN4core3fmt3num3imp52_$LT$impl$u20$core..fmt..Display$u20$for$u20$i64$GT$3fmt17hc0fdd57851e4ed41E
                0x0000000040028854      0x160 bin/obj/rslib.a(core-9bc28a7f9131c3bd.core.d226853cd57cf678-cgu.0.rcgu.o)
                0x0000000040028854                core::fmt::num::imp::<impl core::fmt::Display for i64>::fmt
                0x0000000040028854                core::fmt::num::imp::<impl core::fmt::Display for isize>::fmt
 .text._ZN4core3fmt3num3imp21_$LT$impl$u20$u64$GT$4_fmt17hc25d5222b9d765aaE
                0x00000000400289b4      0x138 bin/obj/rslib.a(core-9bc28a7f9131c3bd.core.d226853cd57cf678-cgu.0.rcgu.o)
                0x00000000400289b4                core::fmt::num::imp::<impl usize>::_fmt
                0x00000000400289b4                core::fmt::num::imp::<impl u64>::_fmt
 .text._ZN4core3fmt3num3imp7exp_u6417h72303697ce3f5022E
                0x0000000040028aec      0x494 bin/obj/rslib.a(core-9bc28a7f9131c3bd.core.d226853cd57cf678-cgu.0.rcgu.o)
 .text._ZN4core3fmt3num3imp52_$LT$impl$u20$core..fmt..LowerExp$u20$for$u20$i8$GT$3fmt17h164cb30cdb99f39eE
                0x0000000040028f80       0x20 bin/obj/rslib.a(core-9bc28a7f9131c3bd.core.d226853cd57cf678-cgu.0.rcgu.o)
                0x0000000040028f80                core::fmt::num::imp::<impl core::fmt::LowerExp for i8>::fmt
 .text._ZN4core3fmt3num3imp52_$LT$impl$u20$core..fmt..LowerExp$u20$for$u20$u8$GT$3fmt17h1c6c1cea24df4445E
                0x0000000040028fa0       0x14 bin/obj/rslib.a(core-9bc28a7f9131c3bd.core.d226853cd57cf678-cgu.0.rcgu.o)
                0x0000000040028fa0                core::fmt::num::imp::<impl core::fmt::LowerExp for u8>::fmt
 .text._ZN4core3fmt3num3imp53_$LT$impl$u20$core..fmt..LowerExp$u20$for$u20$i16$GT$3fmt17hf1245ef0f5bb01b7E
                0x0000000040028fb4       0x20 bin/obj/rslib.a(core-9bc28a7f9131c3bd.core.d226853cd57cf678-cgu.0.rcgu.o)
                0x0000000040028fb4                core::fmt::num::imp::<impl core::fmt::LowerExp for i16>::fmt
 .text._ZN4core3fmt3num3imp53_$LT$impl$u20$core..fmt..LowerExp$u20$for$u20$u16$GT$3fmt17h6757882ed4606aebE
                0x0000000040028fd4       0x14 bin/obj/rslib.a(core-9bc28a7f9131c3bd.core.d226853cd57cf678-cgu.0.rcgu.o)
                0x0000000040028fd4                core::fmt::num::imp::<impl core::fmt::LowerExp for u16>::fmt
 .text._ZN4core3fmt3num3imp53_$LT$impl$u20$core..fmt..LowerExp$u20$for$u20$i32$GT$3fmt17ha5ff67917296b862E
                0x0000000040028fe8       0x24 bin/obj/rslib.a(core-9bc28a7f9131c3bd.core.d226853cd57cf678-cgu.0.rcgu.o)
                0x0000000040028fe8                core::fmt::num::imp::<impl core::fmt::LowerExp for i32>::fmt
 .text._ZN4core3fmt3num3imp53_$LT$impl$u20$core..fmt..LowerExp$u20$for$u20$u32$GT$3fmt17h275849460388a966E
                0x000000004002900c       0x14 bin/obj/rslib.a(core-9bc28a7f9131c3bd.core.d226853cd57cf678-cgu.0.rcgu.o)
                0x000000004002900c                core::fmt::num::imp::<impl core::fmt::LowerExp for u32>::fmt
 .text._ZN4core3fmt3num3imp53_$LT$impl$u20$core..fmt..LowerExp$u20$for$u20$i64$GT$3fmt17h369a8e87c6b5bc2aE
                0x0000000040029020       0x20 bin/obj/rslib.a(core-9bc28a7f9131c3bd.core.d226853cd57cf678-cgu.0.rcgu.o)
                0x0000000040029020                core::fmt::num::imp::<impl core::fmt::LowerExp for i64>::fmt
                0x0000000040029020                core::fmt::num::imp::<impl core::fmt::LowerExp for isize>::fmt
 .text._ZN4core3fmt3num3imp53_$LT$impl$u20$core..fmt..LowerExp$u20$for$u20$u64$GT$3fmt17h61824f28da4c1162E
                0x0000000040029040       0x14 bin/obj/rslib.a(core-9bc28a7f9131c3bd.core.d226853cd57cf678-cgu.0.rcgu.o)
                0x0000000040029040                core::fmt::num::imp::<impl core::fmt::LowerExp for u64>::fmt
                0x0000000040029040                core::fmt::num::imp::<impl core::fmt::LowerExp for usize>::fmt
 .text._ZN4core3fmt3num3imp52_$LT$impl$u20$core..fmt..UpperExp$u20$for$u20$i8$GT$3fmt17hf66fd7f3418eba4eE
                0x0000000040029054       0x20 bin/obj/rslib.a(core-9bc28a7f9131c3bd.core.d226853cd57cf678-cgu.0.rcgu.o)
                0x0000000040029054                core::fmt::num::imp::<impl core::fmt::UpperExp for i8>::fmt
 .text._ZN4core3fmt3num3imp52_$LT$impl$u20$core..fmt..UpperExp$u20$for$u20$u8$GT$3fmt17h2edc725c4dc527c2E
                0x0000000040029074       0x14 bin/obj/rslib.a(core-9bc28a7f9131c3bd.core.d226853cd57cf678-cgu.0.rcgu.o)
                0x0000000040029074                core::fmt::num::imp::<impl core::fmt::UpperExp for u8>::fmt
 .text._ZN4core3fmt3num3imp53_$LT$impl$u20$core..fmt..UpperExp$u20$for$u20$i16$GT$3fmt17hd23a433b7562b37aE
                0x0000000040029088       0x20 bin/obj/rslib.a(core-9bc28a7f9131c3bd.core.d226853cd57cf678-cgu.0.rcgu.o)
                0x0000000040029088                core::fmt::num::imp::<impl core::fmt::UpperExp for i16>::fmt
 .text._ZN4core3fmt3num3imp53_$LT$impl$u20$core..fmt..UpperExp$u20$for$u20$u16$GT$3fmt17hc3500b1f667e9324E
                0x00000000400290a8       0x14 bin/obj/rslib.a(core-9bc28a7f9131c3bd.core.d226853cd57cf678-cgu.0.rcgu.o)
                0x00000000400290a8                core::fmt::num::imp::<impl core::fmt::UpperExp for u16>::fmt
 .text._ZN4core3fmt3num3imp53_$LT$impl$u20$core..fmt..UpperExp$u20$for$u20$i32$GT$3fmt17h34831b550ea95cf3E
                0x00000000400290bc       0x24 bin/obj/rslib.a(core-9bc28a7f9131c3bd.core.d226853cd57cf678-cgu.0.rcgu.o)
                0x00000000400290bc                core::fmt::num::imp::<impl core::fmt::UpperExp for i32>::fmt
 .text._ZN4core3fmt3num3imp53_$LT$impl$u20$core..fmt..UpperExp$u20$for$u20$u32$GT$3fmt17h616a875c49a56fb9E
                0x00000000400290e0       0x14 bin/obj/rslib.a(core-9bc28a7f9131c3bd.core.d226853cd57cf678-cgu.0.rcgu.o)
                0x00000000400290e0                core::fmt::num::imp::<impl core::fmt::UpperExp for u32>::fmt
 .text._ZN4core3fmt3num3imp53_$LT$impl$u20$core..fmt..UpperExp$u20$for$u20$i64$GT$3fmt17h0119862b574a0b99E
                0x00000000400290f4       0x20 bin/obj/rslib.a(core-9bc28a7f9131c3bd.core.d226853cd57cf678-cgu.0.rcgu.o)
                0x00000000400290f4                core::fmt::num::imp::<impl core::fmt::UpperExp for isize>::fmt
                0x00000000400290f4                core::fmt::num::imp::<impl core::fmt::UpperExp for i64>::fmt
 .text._ZN4core3fmt3num3imp53_$LT$impl$u20$core..fmt..UpperExp$u20$for$u20$u64$GT$3fmt17hd8dc24842799ce78E
                0x0000000040029114       0x14 bin/obj/rslib.a(core-9bc28a7f9131c3bd.core.d226853cd57cf678-cgu.0.rcgu.o)
                0x0000000040029114                core::fmt::num::imp::<impl core::fmt::UpperExp for usize>::fmt
                0x0000000040029114                core::fmt::num::imp::<impl core::fmt::UpperExp for u64>::fmt
 .text._ZN4core3fmt3num8exp_u12817h4fec349099733d14E
                0x0000000040029128      0x858 bin/obj/rslib.a(core-9bc28a7f9131c3bd.core.d226853cd57cf678-cgu.0.rcgu.o)
 .text._ZN4core3fmt3num54_$LT$impl$u20$core..fmt..LowerExp$u20$for$u20$i128$GT$3fmt17hf0b8102c9f9d3536E
                0x0000000040029980       0x2c bin/obj/rslib.a(core-9bc28a7f9131c3bd.core.d226853cd57cf678-cgu.0.rcgu.o)
                0x0000000040029980                core::fmt::num::<impl core::fmt::LowerExp for i128>::fmt
 .text._ZN4core3fmt3num54_$LT$impl$u20$core..fmt..LowerExp$u20$for$u20$u128$GT$3fmt17hf3f32b541ba01f59E
                0x00000000400299ac       0x18 bin/obj/rslib.a(core-9bc28a7f9131c3bd.core.d226853cd57cf678-cgu.0.rcgu.o)
                0x00000000400299ac                core::fmt::num::<impl core::fmt::LowerExp for u128>::fmt
 .text._ZN4core3fmt3num54_$LT$impl$u20$core..fmt..UpperExp$u20$for$u20$i128$GT$3fmt17h462ca5ed71edc1a1E
                0x00000000400299c4       0x2c bin/obj/rslib.a(core-9bc28a7f9131c3bd.core.d226853cd57cf678-cgu.0.rcgu.o)
                0x00000000400299c4                core::fmt::num::<impl core::fmt::UpperExp for i128>::fmt
 .text._ZN4core3fmt3num54_$LT$impl$u20$core..fmt..UpperExp$u20$for$u20$u128$GT$3fmt17h818ca837df8404c2E
                0x00000000400299f0       0x18 bin/obj/rslib.a(core-9bc28a7f9131c3bd.core.d226853cd57cf678-cgu.0.rcgu.o)
                0x00000000400299f0                core::fmt::num::<impl core::fmt::UpperExp for u128>::fmt
 .text._ZN53_$LT$core..fmt..Error$u20$as$u20$core..fmt..Debug$GT$3fmt17h75c3144c477efaf6E
                0x0000000040029a08       0x1c bin/obj/rslib.a(core-9bc28a7f9131c3bd.core.d226853cd57cf678-cgu.0.rcgu.o)
 .text._ZN42_$LT$$RF$T$u20$as$u20$core..fmt..Debug$GT$3fmt17h382bc07ec3ed0cc5E
                0x0000000040029a24        0x8 bin/obj/rslib.a(core-9bc28a7f9131c3bd.core.d226853cd57cf678-cgu.0.rcgu.o)
 .text._ZN42_$LT$$RF$T$u20$as$u20$core..fmt..Debug$GT$3fmt17h438bb823d23a0d83E
                0x0000000040029a2c       0xe0 bin/obj/rslib.a(core-9bc28a7f9131c3bd.core.d226853cd57cf678-cgu.0.rcgu.o)
 .text._ZN42_$LT$$RF$T$u20$as$u20$core..fmt..Debug$GT$3fmt17h497366daea641664E
                0x0000000040029b0c        0xc bin/obj/rslib.a(core-9bc28a7f9131c3bd.core.d226853cd57cf678-cgu.0.rcgu.o)
 .text._ZN42_$LT$$RF$T$u20$as$u20$core..fmt..Debug$GT$3fmt17hfc686a979fd3ffd1E
                0x0000000040029b18       0x14 bin/obj/rslib.a(core-9bc28a7f9131c3bd.core.d226853cd57cf678-cgu.0.rcgu.o)
 .text._ZN44_$LT$$RF$T$u20$as$u20$core..fmt..Display$GT$3fmt17h0e51891b5ff3c47dE
                0x0000000040029b2c        0x8 bin/obj/rslib.a(core-9bc28a7f9131c3bd.core.d226853cd57cf678-cgu.0.rcgu.o)
 .text._ZN44_$LT$$RF$T$u20$as$u20$core..fmt..Display$GT$3fmt17h2cd2f622f3d080c9E
                0x0000000040029b34        0x8 bin/obj/rslib.a(core-9bc28a7f9131c3bd.core.d226853cd57cf678-cgu.0.rcgu.o)
 .text._ZN44_$LT$$RF$T$u20$as$u20$core..fmt..Display$GT$3fmt17h89715b1f77d6cb61E
                0x0000000040029b3c       0x10 bin/obj/rslib.a(core-9bc28a7f9131c3bd.core.d226853cd57cf678-cgu.0.rcgu.o)
 .text._ZN44_$LT$$RF$T$u20$as$u20$core..fmt..Display$GT$3fmt17hb3b269bd938ac752E
                0x0000000040029b4c        0x8 bin/obj/rslib.a(core-9bc28a7f9131c3bd.core.d226853cd57cf678-cgu.0.rcgu.o)
 .text._ZN45_$LT$$RF$T$u20$as$u20$core..fmt..LowerHex$GT$3fmt17h00e62eadbef949c6E
                0x0000000040029b54       0x84 bin/obj/rslib.a(core-9bc28a7f9131c3bd.core.d226853cd57cf678-cgu.0.rcgu.o)
 .text.unlikely._ZN4core5slice5index26slice_start_index_len_fail8do_panic7runtime17hbae5e26d8f78dd0fE
                0x0000000040029bd8       0x50 bin/obj/rslib.a(core-9bc28a7f9131c3bd.core.d226853cd57cf678-cgu.0.rcgu.o)
                0x0000000040029bd8                core::slice::index::slice_start_index_len_fail::do_panic::runtime
 .text.unlikely._ZN4core5slice5index24slice_end_index_len_fail8do_panic7runtime17hcc05683b779fa272E
                0x0000000040029c28       0x50 bin/obj/rslib.a(core-9bc28a7f9131c3bd.core.d226853cd57cf678-cgu.0.rcgu.o)
                0x0000000040029c28                core::slice::index::slice_end_index_len_fail::do_panic::runtime
 .text.unlikely._ZN4core5slice5index22slice_index_order_fail8do_panic7runtime17h649d58543a2516bcE
                0x0000000040029c78       0x50 bin/obj/rslib.a(core-9bc28a7f9131c3bd.core.d226853cd57cf678-cgu.0.rcgu.o)
                0x0000000040029c78                core::slice::index::slice_index_order_fail::do_panic::runtime
 .text.unlikely._ZN4core5slice29_$LT$impl$u20$$u5b$T$u5d$$GT$15copy_from_slice17len_mismatch_fail8do_panic7runtime17h6344d438f657ecb1E
                0x0000000040029cc8       0x54 bin/obj/rslib.a(core-9bc28a7f9131c3bd.core.d226853cd57cf678-cgu.0.rcgu.o)
                0x0000000040029cc8                core::slice::<impl [T]>::copy_from_slice::len_mismatch_fail::do_panic::runtime
 .text._ZN67_$LT$core..str..iter..EscapeDebug$u20$as$u20$core..fmt..Display$GT$3fmt17hf0896e73fecf2adeE
                0x0000000040029d1c      0x7ac bin/obj/rslib.a(core-9bc28a7f9131c3bd.core.d226853cd57cf678-cgu.0.rcgu.o)
                0x0000000040029d1c                <core::str::iter::EscapeDebug as core::fmt::Display>::fmt
 .text._ZN69_$LT$core..str..iter..EscapeDefault$u20$as$u20$core..fmt..Display$GT$3fmt17h2c759eb01e375b5eE
                0x000000004002a4c8      0x4b4 bin/obj/rslib.a(core-9bc28a7f9131c3bd.core.d226853cd57cf678-cgu.0.rcgu.o)
                0x000000004002a4c8                <core::str::iter::EscapeDefault as core::fmt::Display>::fmt
 .text._ZN69_$LT$core..str..iter..EscapeUnicode$u20$as$u20$core..fmt..Display$GT$3fmt17h9e00954d7017a5e2E
                0x000000004002a97c      0x34c bin/obj/rslib.a(core-9bc28a7f9131c3bd.core.d226853cd57cf678-cgu.0.rcgu.o)
                0x000000004002a97c                <core::str::iter::EscapeUnicode as core::fmt::Display>::fmt
 .text._ZN4core7unicode12unicode_data10alphabetic6lookup17hf7a4427e04766716E
                0x000000004002acc8      0x104 bin/obj/rslib.a(core-9bc28a7f9131c3bd.core.d226853cd57cf678-cgu.0.rcgu.o)
                0x000000004002acc8                core::unicode::unicode_data::alphabetic::lookup
 .text._ZN4core7unicode12unicode_data14case_ignorable6lookup17h211feda2ca58efbfE
                0x000000004002adcc      0x10c bin/obj/rslib.a(core-9bc28a7f9131c3bd.core.d226853cd57cf678-cgu.0.rcgu.o)
                0x000000004002adcc                core::unicode::unicode_data::case_ignorable::lookup
 .text._ZN4core7unicode12unicode_data5cased6lookup17he203fadf8203aa78E
                0x000000004002aed8       0xf4 bin/obj/rslib.a(core-9bc28a7f9131c3bd.core.d226853cd57cf678-cgu.0.rcgu.o)
                0x000000004002aed8                core::unicode::unicode_data::cased::lookup
 .text._ZN4core7unicode12unicode_data2cc6lookup17hfb63bee602ad6858E
                0x000000004002afcc       0x18 bin/obj/rslib.a(core-9bc28a7f9131c3bd.core.d226853cd57cf678-cgu.0.rcgu.o)
                0x000000004002afcc                core::unicode::unicode_data::cc::lookup
 .text._ZN4core7unicode12unicode_data15grapheme_extend11lookup_slow17hebad247978c0dfebE
                0x000000004002afe4      0x108 bin/obj/rslib.a(core-9bc28a7f9131c3bd.core.d226853cd57cf678-cgu.0.rcgu.o)
                0x000000004002afe4                core::unicode::unicode_data::grapheme_extend::lookup_slow
 .text._ZN4core7unicode12unicode_data9lowercase6lookup17h753a2c6ca2fba2d3E
                0x000000004002b0ec      0x124 bin/obj/rslib.a(core-9bc28a7f9131c3bd.core.d226853cd57cf678-cgu.0.rcgu.o)
                0x000000004002b0ec                core::unicode::unicode_data::lowercase::lookup
 .text._ZN4core7unicode12unicode_data1n6lookup17hbb1a3a737d229fc7E
                0x000000004002b210      0x10c bin/obj/rslib.a(core-9bc28a7f9131c3bd.core.d226853cd57cf678-cgu.0.rcgu.o)
                0x000000004002b210                core::unicode::unicode_data::n::lookup
 .text._ZN4core7unicode12unicode_data9uppercase6lookup17h5f3099166483d3beE
                0x000000004002b31c      0x124 bin/obj/rslib.a(core-9bc28a7f9131c3bd.core.d226853cd57cf678-cgu.0.rcgu.o)
                0x000000004002b31c                core::unicode::unicode_data::uppercase::lookup
 .text._ZN4core7unicode12unicode_data11conversions8to_lower17h65c09b5dfc26ee58E
                0x000000004002b440      0x184 bin/obj/rslib.a(core-9bc28a7f9131c3bd.core.d226853cd57cf678-cgu.0.rcgu.o)
                0x000000004002b440                core::unicode::unicode_data::conversions::to_lower
 .text._ZN4core7unicode12unicode_data11conversions8to_upper17h2db673ea36e32a80E
                0x000000004002b5c4      0x1b0 bin/obj/rslib.a(core-9bc28a7f9131c3bd.core.d226853cd57cf678-cgu.0.rcgu.o)
                0x000000004002b5c4                core::unicode::unicode_data::conversions::to_upper
 .text.OUTLINED_FUNCTION_0
                0x000000004002b774       0x18 bin/obj/rslib.a(core-9bc28a7f9131c3bd.core.d226853cd57cf678-cgu.0.rcgu.o)
 .text          0x000000004002b78c        0x0 bin/obj/rslib.a(compiler_builtins-f062c31c443b6323.compiler_builtins.9d65875af80bedf9-cgu.155.rcgu.o)
 .text.__udivti3
                0x000000004002b78c       0x24 bin/obj/rslib.a(compiler_builtins-f062c31c443b6323.compiler_builtins.9d65875af80bedf9-cgu.155.rcgu.o)
                0x000000004002b78c                __udivti3
 .text          0x000000004002b7b0        0x0 bin/obj/rslib.a(compiler_builtins-f062c31c443b6323.compiler_builtins.9d65875af80bedf9-cgu.167.rcgu.o)
 .text.memcmp   0x000000004002b7b0       0x28 bin/obj/rslib.a(compiler_builtins-f062c31c443b6323.compiler_builtins.9d65875af80bedf9-cgu.167.rcgu.o)
                0x000000004002b7b0                memcmp
 .text          0x000000004002b7d8        0x0 bin/obj/rslib.a(compiler_builtins-f062c31c443b6323.compiler_builtins.9d65875af80bedf9-cgu.195.rcgu.o)
 .text.memset   0x000000004002b7d8      0x15c bin/obj/rslib.a(compiler_builtins-f062c31c443b6323.compiler_builtins.9d65875af80bedf9-cgu.195.rcgu.o)
                0x000000004002b7d8                memset
 .text          0x000000004002b934        0x0 bin/obj/rslib.a(compiler_builtins-f062c31c443b6323.compiler_builtins.9d65875af80bedf9-cgu.254.rcgu.o)
 .text.memcpy   0x000000004002b934      0x20c bin/obj/rslib.a(compiler_builtins-f062c31c443b6323.compiler_builtins.9d65875af80bedf9-cgu.254.rcgu.o)
                0x000000004002b934                memcpy
 .text          0x000000004002bb40        0x0 bin/obj/rslib.a(compiler_builtins-f062c31c443b6323.compiler_builtins.9d65875af80bedf9-cgu.010.rcgu.o)
 .text._ZN17compiler_builtins3int19specialized_div_rem12u128_div_rem17hb559e713c5767820E
                0x000000004002bb40      0x324 bin/obj/rslib.a(compiler_builtins-f062c31c443b6323.compiler_builtins.9d65875af80bedf9-cgu.010.rcgu.o)
                0x000000004002bb40                compiler_builtins::int::specialized_div_rem::u128_div_rem
 .text._ZN17compiler_builtins3int19specialized_div_rem11u64_div_rem17h72411c731a6525a3E
                0x000000004002be64       0xd8 bin/obj/rslib.a(compiler_builtins-f062c31c443b6323.compiler_builtins.9d65875af80bedf9-cgu.010.rcgu.o)
                0x000000004002be64                compiler_builtins::int::specialized_div_rem::u64_div_rem
 .text._ZN17compiler_builtins3int19specialized_div_rem11u32_div_rem17h5b57c34a8a2206bbE
                0x000000004002bf3c       0xd4 bin/obj/rslib.a(compiler_builtins-f062c31c443b6323.compiler_builtins.9d65875af80bedf9-cgu.010.rcgu.o)
                0x000000004002bf3c                compiler_builtins::int::specialized_div_rem::u32_div_rem
                0x000000004002c040                . = ALIGN (0x40)
 *fill*         0x000000004002c010       0x30 
                0x000000004002c040                __text_end = .

.iplt           0x000000004002c040        0x0
 .iplt          0x000000004002c040        0x0 bin/obj/__arm/exceptions/el2_vectors.o

.vectors        0x000000004002c800      0xfc0
                0x000000004002c800                __vectors_start = .
 *(.vectors)
 .vectors       0x000000004002c800      0x784 bin/obj/__arm/exceptions/el2_vectors.o
                0x000000004002c800                _el2_vector_table
 *fill*         0x000000004002cf84       0x7c 
 .vectors       0x000000004002d000      0x784 bin/obj/__arm/exceptions/el1_vectors.o
                0x000000004002d000                _el1_vector_table
                0x000000004002d7c0                . = ALIGN (0x40)
 *fill*         0x000000004002d784       0x3c 
                0x000000004002d7c0                __vectors_end = .

.rela.dyn       0x000000004002d7c0        0x0
 .rela.iplt     0x000000004002d7c0        0x0 bin/obj/__arm/exceptions/el2_vectors.o
 .rela.text     0x000000004002d7c0        0x0 bin/obj/__arm/exceptions/el2_vectors.o
 .rela.text.boot
                0x000000004002d7c0        0x0 bin/obj/__arm/exceptions/el2_vectors.o

.rodata         0x000000004002d7c0    0x104b0
 *(.rodata*)
 .rodata        0x000000004002d7c0       0x26 bin/obj/kernel/irq/irq.o
 *fill*         0x000000004002d7e6        0x2 
 .rodata        0x000000004002d7e8       0x70 bin/obj/kernel/devices/drivers.o
                0x000000004002d7e8                GIC_DRIVER
                0x000000004002d7f8                UART1_DRIVER
                0x000000004002d808                UART2_DRIVER
                0x000000004002d818                UART3_DRIVER
                0x000000004002d828                UART4_DRIVER
                0x000000004002d838                TMU_DRIVER
                0x000000004002d848                AGT0_DRIVER
 *fill*         0x000000004002d858        0x8 
 .rodata        0x000000004002d860       0x20 bin/obj/kernel/init/init_drivers.o
 .rodata        0x000000004002d880       0x1b bin/obj/kernel/kernel_entry.o
 *fill*         0x000000004002d89b        0x5 
 .rodata        0x000000004002d8a0       0x53 bin/obj/arm/exceptions/handlers/el1/el1_cur_sp0_fiq.o
 *fill*         0x000000004002d8f3        0x5 
 .rodata        0x000000004002d8f8       0x56 bin/obj/arm/exceptions/handlers/el1/el1_low_a32_serror.o
 *fill*         0x000000004002d94e        0x2 
 .rodata        0x000000004002d950       0x53 bin/obj/arm/exceptions/handlers/el1/el1_low_a32_fiq.o
 *fill*         0x000000004002d9a3        0x5 
 .rodata        0x000000004002d9a8       0x54 bin/obj/arm/exceptions/handlers/el1/el1_low_a64_sync.o
 *fill*         0x000000004002d9fc        0x4 
 .rodata        0x000000004002da00       0x54 bin/obj/arm/exceptions/handlers/el1/el1_cur_spx_sync.o
 *fill*         0x000000004002da54        0x4 
 .rodata        0x000000004002da58       0x53 bin/obj/arm/exceptions/handlers/el1/el1_cur_spx_fiq.o
 *fill*         0x000000004002daab        0x5 
 .rodata        0x000000004002dab0       0x56 bin/obj/arm/exceptions/handlers/el1/el1_cur_spx_serror.o
 *fill*         0x000000004002db06        0x2 
 .rodata        0x000000004002db08       0x53 bin/obj/arm/exceptions/handlers/el1/el1_low_a32_irq.o
 *fill*         0x000000004002db5b        0x5 
 .rodata        0x000000004002db60       0x53 bin/obj/arm/exceptions/handlers/el1/el1_low_a64_fiq.o
 *fill*         0x000000004002dbb3        0x5 
 .rodata        0x000000004002dbb8       0x53 bin/obj/arm/exceptions/handlers/el1/el1_low_a64_irq.o
 *fill*         0x000000004002dc0b        0x5 
 .rodata        0x000000004002dc10       0x54 bin/obj/arm/exceptions/handlers/el1/el1_cur_sp0_sync.o
 *fill*         0x000000004002dc64        0x4 
 .rodata        0x000000004002dc68       0x53 bin/obj/arm/exceptions/handlers/el1/el1_cur_sp0_irq.o
 *fill*         0x000000004002dcbb        0x5 
 .rodata        0x000000004002dcc0       0x56 bin/obj/arm/exceptions/handlers/el1/el1_low_a64_serror.o
 *fill*         0x000000004002dd16        0x2 
 .rodata        0x000000004002dd18       0x54 bin/obj/arm/exceptions/handlers/el1/el1_low_a32_sync.o
 *fill*         0x000000004002dd6c        0x4 
 .rodata        0x000000004002dd70       0x56 bin/obj/arm/exceptions/handlers/el1/el1_cur_sp0_serror.o
 *fill*         0x000000004002ddc6        0x2 
 .rodata        0x000000004002ddc8       0x56 bin/obj/arm/exceptions/handlers/el2/el2_low_a32_serror.o
 *fill*         0x000000004002de1e        0x2 
 .rodata        0x000000004002de20       0x56 bin/obj/arm/exceptions/handlers/el2/el2_cur_spx_serror.o
 *fill*         0x000000004002de76        0x2 
 .rodata        0x000000004002de78       0x56 bin/obj/arm/exceptions/handlers/el2/el2_low_a64_serror.o
 *fill*         0x000000004002dece        0x2 
 .rodata        0x000000004002ded0       0x54 bin/obj/arm/exceptions/handlers/el2/el2_low_a64_sync.o
 *fill*         0x000000004002df24        0x4 
 .rodata        0x000000004002df28       0x53 bin/obj/arm/exceptions/handlers/el2/el2_cur_sp0_irq.o
 *fill*         0x000000004002df7b        0x5 
 .rodata        0x000000004002df80       0x56 bin/obj/arm/exceptions/handlers/el2/el2_cur_sp0_serror.o
 *fill*         0x000000004002dfd6        0x2 
 .rodata        0x000000004002dfd8       0x53 bin/obj/arm/exceptions/handlers/el2/el2_low_a64_irq.o
 *fill*         0x000000004002e02b        0x5 
 .rodata        0x000000004002e030       0x53 bin/obj/arm/exceptions/handlers/el2/el2_low_a64_fiq.o
 *fill*         0x000000004002e083        0x5 
 .rodata        0x000000004002e088       0x53 bin/obj/arm/exceptions/handlers/el2/el2_cur_spx_fiq.o
 *fill*         0x000000004002e0db        0x5 
 .rodata        0x000000004002e0e0       0x53 bin/obj/arm/exceptions/handlers/el2/el2_low_a32_irq.o
 *fill*         0x000000004002e133        0x5 
 .rodata        0x000000004002e138       0x53 bin/obj/arm/exceptions/handlers/el2/el2_cur_sp0_fiq.o
 *fill*         0x000000004002e18b        0x5 
 .rodata        0x000000004002e190       0x53 bin/obj/arm/exceptions/handlers/el2/el2_low_a32_fiq.o
 *fill*         0x000000004002e1e3        0x5 
 .rodata        0x000000004002e1e8       0x54 bin/obj/arm/exceptions/handlers/el2/el2_cur_spx_sync.o
 *fill*         0x000000004002e23c        0x4 
 .rodata        0x000000004002e240       0x54 bin/obj/arm/exceptions/handlers/el2/el2_low_a32_sync.o
 *fill*         0x000000004002e294        0x4 
 .rodata        0x000000004002e298       0x54 bin/obj/arm/exceptions/handlers/el2/el2_cur_sp0_sync.o
 *fill*         0x000000004002e2ec        0x4 
 .rodata        0x000000004002e2f0       0x53 bin/obj/arm/exceptions/handlers/el2/el2_cur_spx_irq.o
 *fill*         0x000000004002e343        0x5 
 .rodata        0x000000004002e348       0x41 bin/obj/arm/exceptions/exceptions.o
 *fill*         0x000000004002e389        0x7 
 .rodata        0x000000004002e390      0x115 bin/obj/lib/string.o
 *fill*         0x000000004002e4a5        0x3 
 .rodata        0x000000004002e4a8      0x116 bin/obj/lib/memcpy/memcpy.o
 *fill*         0x000000004002e5be        0x2 
 .rodata        0x000000004002e5c0      0x2be bin/obj/boot/panic/panic.o
 *fill*         0x000000004002e87e        0x2 
 .rodata        0x000000004002e880      0x1ab bin/obj/drivers/tmu/tmu.o
                0x000000004002e880                TMU_MAX_SENSOR_TEMP_C
                0x000000004002e881                TMU_MIN_SENSOR_TEMP_C
                0x000000004002e882                TMU_MAX_RECCOMENDED_TEMP_C
 *fill*         0x000000004002ea2b        0x5 
 .rodata        0x000000004002ea30      0x2ed bin/obj/drivers/interrupts/gicv3/gicv3.o
 *fill*         0x000000004002ed1d        0x3 
 .rodata        0x000000004002ed20      0x24d bin/obj/drivers/uart/uart.o
 .rodata.str1.1
                0x000000004002ef6d      0x42d bin/obj/rslib.a(imx8mp_kernel-d04bdacbb24302de.imx8mp_kernel.6f56ecdf942cbc9a-cgu.0.rcgu.o)
                                         0x61 (size before relaxing)
 *fill*         0x000000004002f39a        0x6 
 .rodata..Lanon.a5b2131d5c735e3a18f21a6be7f6faf7.1
                0x000000004002f3a0       0x18 bin/obj/rslib.a(imx8mp_kernel-d04bdacbb24302de.imx8mp_kernel.6f56ecdf942cbc9a-cgu.0.rcgu.o)
 .rodata..Lanon.a5b2131d5c735e3a18f21a6be7f6faf7.2
                0x000000004002f3b8       0x18 bin/obj/rslib.a(imx8mp_kernel-d04bdacbb24302de.imx8mp_kernel.6f56ecdf942cbc9a-cgu.0.rcgu.o)
 .rodata..Lanon.a5b2131d5c735e3a18f21a6be7f6faf7.4
                0x000000004002f3d0       0x18 bin/obj/rslib.a(imx8mp_kernel-d04bdacbb24302de.imx8mp_kernel.6f56ecdf942cbc9a-cgu.0.rcgu.o)
 .rodata..Lanon.a5b2131d5c735e3a18f21a6be7f6faf7.5
                0x000000004002f3e8       0x18 bin/obj/rslib.a(imx8mp_kernel-d04bdacbb24302de.imx8mp_kernel.6f56ecdf942cbc9a-cgu.0.rcgu.o)
 .rodata..Lanon.a5b2131d5c735e3a18f21a6be7f6faf7.7
                0x000000004002f400       0x18 bin/obj/rslib.a(imx8mp_kernel-d04bdacbb24302de.imx8mp_kernel.6f56ecdf942cbc9a-cgu.0.rcgu.o)
 .rodata..Lanon.a5b2131d5c735e3a18f21a6be7f6faf7.8
                0x000000004002f418       0x44 bin/obj/rslib.a(imx8mp_kernel-d04bdacbb24302de.imx8mp_kernel.6f56ecdf942cbc9a-cgu.0.rcgu.o)
 *fill*         0x000000004002f45c        0x4 
 .rodata..Lanon.a5b2131d5c735e3a18f21a6be7f6faf7.9
                0x000000004002f460       0x10 bin/obj/rslib.a(imx8mp_kernel-d04bdacbb24302de.imx8mp_kernel.6f56ecdf942cbc9a-cgu.0.rcgu.o)
 .rodata..Lanon.a5b2131d5c735e3a18f21a6be7f6faf7.10
                0x000000004002f470       0x18 bin/obj/rslib.a(imx8mp_kernel-d04bdacbb24302de.imx8mp_kernel.6f56ecdf942cbc9a-cgu.0.rcgu.o)
 .rodata..Lanon.a5b2131d5c735e3a18f21a6be7f6faf7.11
                0x000000004002f488       0x18 bin/obj/rslib.a(imx8mp_kernel-d04bdacbb24302de.imx8mp_kernel.6f56ecdf942cbc9a-cgu.0.rcgu.o)
 .rodata..Lanon.a5b2131d5c735e3a18f21a6be7f6faf7.12
                0x000000004002f4a0       0x10 bin/obj/rslib.a(imx8mp_kernel-d04bdacbb24302de.imx8mp_kernel.6f56ecdf942cbc9a-cgu.0.rcgu.o)
 .rodata..Lanon.a5b2131d5c735e3a18f21a6be7f6faf7.13
                0x000000004002f4b0       0x18 bin/obj/rslib.a(imx8mp_kernel-d04bdacbb24302de.imx8mp_kernel.6f56ecdf942cbc9a-cgu.0.rcgu.o)
 .rodata..Lanon.a5b2131d5c735e3a18f21a6be7f6faf7.14
                0x000000004002f4c8       0x18 bin/obj/rslib.a(imx8mp_kernel-d04bdacbb24302de.imx8mp_kernel.6f56ecdf942cbc9a-cgu.0.rcgu.o)
 .rodata..Lanon.a5b2131d5c735e3a18f21a6be7f6faf7.15
                0x000000004002f4e0        0xf bin/obj/rslib.a(imx8mp_kernel-d04bdacbb24302de.imx8mp_kernel.6f56ecdf942cbc9a-cgu.0.rcgu.o)
 *fill*         0x000000004002f4ef        0x1 
 .rodata..Lanon.a5b2131d5c735e3a18f21a6be7f6faf7.16
                0x000000004002f4f0       0x10 bin/obj/rslib.a(imx8mp_kernel-d04bdacbb24302de.imx8mp_kernel.6f56ecdf942cbc9a-cgu.0.rcgu.o)
 .rodata..Lanon.a5b2131d5c735e3a18f21a6be7f6faf7.18
                0x000000004002f500       0x18 bin/obj/rslib.a(imx8mp_kernel-d04bdacbb24302de.imx8mp_kernel.6f56ecdf942cbc9a-cgu.0.rcgu.o)
 *fill*         0x000000004002f518        0x8 
 .rodata.cst16  0x000000004002f520       0xf0 bin/obj/rslib.a(core-9bc28a7f9131c3bd.core.d226853cd57cf678-cgu.0.rcgu.o)
                                        0x100 (size before relaxing)
 .rodata.cst8   0x000000004002f610       0x50 bin/obj/rslib.a(core-9bc28a7f9131c3bd.core.d226853cd57cf678-cgu.0.rcgu.o)
                                         0x68 (size before relaxing)
 .rodata        0x000000004002f660        0x4 bin/obj/rslib.a(core-9bc28a7f9131c3bd.core.d226853cd57cf678-cgu.0.rcgu.o)
 .rodata._ZN4core7unicode12unicode_data10alphabetic7OFFSETS17hbd3bda2a2c401745E
                0x000000004002f664      0x5eb bin/obj/rslib.a(core-9bc28a7f9131c3bd.core.d226853cd57cf678-cgu.0.rcgu.o)
 .rodata._ZN4core7unicode12unicode_data14case_ignorable7OFFSETS17hc4a149f60144e0afE
                0x000000004002fc4f      0x389 bin/obj/rslib.a(core-9bc28a7f9131c3bd.core.d226853cd57cf678-cgu.0.rcgu.o)
 .rodata._ZN4core7unicode12unicode_data5cased7OFFSETS17h5c169b617df6189bE
                0x000000004002ffd8      0x13f bin/obj/rslib.a(core-9bc28a7f9131c3bd.core.d226853cd57cf678-cgu.0.rcgu.o)
 .rodata._ZN4core7unicode12unicode_data15grapheme_extend7OFFSETS17h833b9677cf509fbeE
                0x0000000040030117      0x2ef bin/obj/rslib.a(core-9bc28a7f9131c3bd.core.d226853cd57cf678-cgu.0.rcgu.o)
 .rodata._ZN4core7unicode12unicode_data9lowercase17BITSET_CHUNKS_MAP17hd57f1e8f794dd1f2E
                0x0000000040030406       0x7b bin/obj/rslib.a(core-9bc28a7f9131c3bd.core.d226853cd57cf678-cgu.0.rcgu.o)
                0x0000000040030406                core::unicode::unicode_data::lowercase::BITSET_CHUNKS_MAP
 .rodata._ZN4core7unicode12unicode_data1n7OFFSETS17h6fe576f83aa816afE
                0x0000000040030481      0x121 bin/obj/rslib.a(core-9bc28a7f9131c3bd.core.d226853cd57cf678-cgu.0.rcgu.o)
 .rodata._ZN4core7unicode12unicode_data9uppercase17BITSET_CHUNKS_MAP17h6506b5a89e06140dE
                0x00000000400305a2       0x7d bin/obj/rslib.a(core-9bc28a7f9131c3bd.core.d226853cd57cf678-cgu.0.rcgu.o)
                0x00000000400305a2                core::unicode::unicode_data::uppercase::BITSET_CHUNKS_MAP
 .rodata._ZN4core7unicode12unicode_data11white_space14WHITESPACE_MAP17hba0fcaaab9683287E
                0x000000004003061f      0x100 bin/obj/rslib.a(core-9bc28a7f9131c3bd.core.d226853cd57cf678-cgu.0.rcgu.o)
                0x000000004003061f                core::unicode::unicode_data::white_space::WHITESPACE_MAP
 *fill*         0x000000004003071f        0x1 
 .rodata..Lanon.dabceac4c2e9a1f7e7ee9d5fdd3d8f81.0
                0x0000000040030720       0x80 bin/obj/rslib.a(core-9bc28a7f9131c3bd.core.d226853cd57cf678-cgu.0.rcgu.o)
 .rodata.str1.1
                0x00000000400307a0      0x3cd bin/obj/rslib.a(core-9bc28a7f9131c3bd.core.d226853cd57cf678-cgu.0.rcgu.o)
 .rodata..Lanon.dabceac4c2e9a1f7e7ee9d5fdd3d8f81.2
                0x00000000400307a0       0x18 bin/obj/rslib.a(core-9bc28a7f9131c3bd.core.d226853cd57cf678-cgu.0.rcgu.o)
 .rodata..Lanon.dabceac4c2e9a1f7e7ee9d5fdd3d8f81.3
                0x00000000400307b8       0x18 bin/obj/rslib.a(core-9bc28a7f9131c3bd.core.d226853cd57cf678-cgu.0.rcgu.o)
 .rodata..Lanon.dabceac4c2e9a1f7e7ee9d5fdd3d8f81.4
                0x00000000400307d0       0x18 bin/obj/rslib.a(core-9bc28a7f9131c3bd.core.d226853cd57cf678-cgu.0.rcgu.o)
 .rodata..Lanon.dabceac4c2e9a1f7e7ee9d5fdd3d8f81.5
                0x00000000400307e8       0x18 bin/obj/rslib.a(core-9bc28a7f9131c3bd.core.d226853cd57cf678-cgu.0.rcgu.o)
 .rodata..Lanon.dabceac4c2e9a1f7e7ee9d5fdd3d8f81.6
                0x0000000040030800       0x18 bin/obj/rslib.a(core-9bc28a7f9131c3bd.core.d226853cd57cf678-cgu.0.rcgu.o)
 .rodata..Lanon.dabceac4c2e9a1f7e7ee9d5fdd3d8f81.7
                0x0000000040030818       0x18 bin/obj/rslib.a(core-9bc28a7f9131c3bd.core.d226853cd57cf678-cgu.0.rcgu.o)
 .rodata..Lanon.dabceac4c2e9a1f7e7ee9d5fdd3d8f81.8
                0x0000000040030830       0x82 bin/obj/rslib.a(core-9bc28a7f9131c3bd.core.d226853cd57cf678-cgu.0.rcgu.o)
 .rodata..Lanon.dabceac4c2e9a1f7e7ee9d5fdd3d8f81.9
                0x00000000400308b2      0x51c bin/obj/rslib.a(core-9bc28a7f9131c3bd.core.d226853cd57cf678-cgu.0.rcgu.o)
 *fill*         0x0000000040030dce        0x2 
 .rodata..Lanon.dabceac4c2e9a1f7e7ee9d5fdd3d8f81.10
                0x0000000040030dd0       0x18 bin/obj/rslib.a(core-9bc28a7f9131c3bd.core.d226853cd57cf678-cgu.0.rcgu.o)
 .rodata..Lanon.dabceac4c2e9a1f7e7ee9d5fdd3d8f81.11
                0x0000000040030de8       0x18 bin/obj/rslib.a(core-9bc28a7f9131c3bd.core.d226853cd57cf678-cgu.0.rcgu.o)
 .rodata..Lanon.dabceac4c2e9a1f7e7ee9d5fdd3d8f81.12
                0x0000000040030e00       0x13 bin/obj/rslib.a(core-9bc28a7f9131c3bd.core.d226853cd57cf678-cgu.0.rcgu.o)
 *fill*         0x0000000040030e13        0x1 
 .rodata..Lanon.dabceac4c2e9a1f7e7ee9d5fdd3d8f81.14
                0x0000000040030e14       0x40 bin/obj/rslib.a(core-9bc28a7f9131c3bd.core.d226853cd57cf678-cgu.0.rcgu.o)
 *fill*         0x0000000040030e54        0x4 
 .rodata..Lanon.dabceac4c2e9a1f7e7ee9d5fdd3d8f81.15
                0x0000000040030e58      0x100 bin/obj/rslib.a(core-9bc28a7f9131c3bd.core.d226853cd57cf678-cgu.0.rcgu.o)
 .rodata..Lanon.dabceac4c2e9a1f7e7ee9d5fdd3d8f81.17
                0x0000000040030f58       0x18 bin/obj/rslib.a(core-9bc28a7f9131c3bd.core.d226853cd57cf678-cgu.0.rcgu.o)
 .rodata..Lanon.dabceac4c2e9a1f7e7ee9d5fdd3d8f81.19
                0x0000000040030f70       0x18 bin/obj/rslib.a(core-9bc28a7f9131c3bd.core.d226853cd57cf678-cgu.0.rcgu.o)
 .rodata..Lanon.dabceac4c2e9a1f7e7ee9d5fdd3d8f81.20
                0x0000000040030f88       0x24 bin/obj/rslib.a(core-9bc28a7f9131c3bd.core.d226853cd57cf678-cgu.0.rcgu.o)
 .rodata..Lanon.dabceac4c2e9a1f7e7ee9d5fdd3d8f81.21
                0x0000000040030fac       0x15 bin/obj/rslib.a(core-9bc28a7f9131c3bd.core.d226853cd57cf678-cgu.0.rcgu.o)
 .rodata..Lanon.dabceac4c2e9a1f7e7ee9d5fdd3d8f81.22
                0x0000000040030fc1       0x1d bin/obj/rslib.a(core-9bc28a7f9131c3bd.core.d226853cd57cf678-cgu.0.rcgu.o)
 *fill*         0x0000000040030fde        0x2 
 .rodata..Lanon.dabceac4c2e9a1f7e7ee9d5fdd3d8f81.24
                0x0000000040030fe0       0x18 bin/obj/rslib.a(core-9bc28a7f9131c3bd.core.d226853cd57cf678-cgu.0.rcgu.o)
 .rodata..Lanon.dabceac4c2e9a1f7e7ee9d5fdd3d8f81.25
                0x0000000040030ff8       0x18 bin/obj/rslib.a(core-9bc28a7f9131c3bd.core.d226853cd57cf678-cgu.0.rcgu.o)
 .rodata._ZN4core3num7flt2dec8strategy6dragon8POW5TO1617hdaae9f863aabef84E
                0x0000000040031010        0x8 bin/obj/rslib.a(core-9bc28a7f9131c3bd.core.d226853cd57cf678-cgu.0.rcgu.o)
 .rodata._ZN4core3num7flt2dec8strategy6dragon8POW5TO3217hb723e8ea4836743bE
                0x0000000040031018        0xc bin/obj/rslib.a(core-9bc28a7f9131c3bd.core.d226853cd57cf678-cgu.0.rcgu.o)
 .rodata._ZN4core3num7flt2dec8strategy6dragon8POW5TO6417hf926177fa5d988adE
                0x0000000040031024       0x14 bin/obj/rslib.a(core-9bc28a7f9131c3bd.core.d226853cd57cf678-cgu.0.rcgu.o)
 .rodata._ZN4core3num7flt2dec8strategy6dragon9POW5TO12817h6b317e43886680f7E
                0x0000000040031038       0x28 bin/obj/rslib.a(core-9bc28a7f9131c3bd.core.d226853cd57cf678-cgu.0.rcgu.o)
 .rodata._ZN4core3num7flt2dec8strategy6dragon9POW5TO25617hae59a17aa01d13afE
                0x0000000040031060       0x4c bin/obj/rslib.a(core-9bc28a7f9131c3bd.core.d226853cd57cf678-cgu.0.rcgu.o)
 .rodata..Lanon.dabceac4c2e9a1f7e7ee9d5fdd3d8f81.27
                0x00000000400310ac       0x1c bin/obj/rslib.a(core-9bc28a7f9131c3bd.core.d226853cd57cf678-cgu.0.rcgu.o)
 .rodata..Lanon.dabceac4c2e9a1f7e7ee9d5fdd3d8f81.28
                0x00000000400310c8       0x18 bin/obj/rslib.a(core-9bc28a7f9131c3bd.core.d226853cd57cf678-cgu.0.rcgu.o)
 .rodata..Lanon.dabceac4c2e9a1f7e7ee9d5fdd3d8f81.29
                0x00000000400310e0       0x1d bin/obj/rslib.a(core-9bc28a7f9131c3bd.core.d226853cd57cf678-cgu.0.rcgu.o)
 *fill*         0x00000000400310fd        0x3 
 .rodata..Lanon.dabceac4c2e9a1f7e7ee9d5fdd3d8f81.30
                0x0000000040031100       0x18 bin/obj/rslib.a(core-9bc28a7f9131c3bd.core.d226853cd57cf678-cgu.0.rcgu.o)
 .rodata..Lanon.dabceac4c2e9a1f7e7ee9d5fdd3d8f81.31
                0x0000000040031118       0x1c bin/obj/rslib.a(core-9bc28a7f9131c3bd.core.d226853cd57cf678-cgu.0.rcgu.o)
 *fill*         0x0000000040031134        0x4 
 .rodata..Lanon.dabceac4c2e9a1f7e7ee9d5fdd3d8f81.32
                0x0000000040031138       0x18 bin/obj/rslib.a(core-9bc28a7f9131c3bd.core.d226853cd57cf678-cgu.0.rcgu.o)
 .rodata..Lanon.dabceac4c2e9a1f7e7ee9d5fdd3d8f81.33
                0x0000000040031150       0x2d bin/obj/rslib.a(core-9bc28a7f9131c3bd.core.d226853cd57cf678-cgu.0.rcgu.o)
 *fill*         0x000000004003117d        0x3 
 .rodata..Lanon.dabceac4c2e9a1f7e7ee9d5fdd3d8f81.34
                0x0000000040031180       0x18 bin/obj/rslib.a(core-9bc28a7f9131c3bd.core.d226853cd57cf678-cgu.0.rcgu.o)
 .rodata..Lanon.dabceac4c2e9a1f7e7ee9d5fdd3d8f81.35
                0x0000000040031198       0x18 bin/obj/rslib.a(core-9bc28a7f9131c3bd.core.d226853cd57cf678-cgu.0.rcgu.o)
 .rodata..Lanon.dabceac4c2e9a1f7e7ee9d5fdd3d8f81.36
                0x00000000400311b0       0x18 bin/obj/rslib.a(core-9bc28a7f9131c3bd.core.d226853cd57cf678-cgu.0.rcgu.o)
 .rodata..Lanon.dabceac4c2e9a1f7e7ee9d5fdd3d8f81.37
                0x00000000400311c8       0x18 bin/obj/rslib.a(core-9bc28a7f9131c3bd.core.d226853cd57cf678-cgu.0.rcgu.o)
 .rodata..Lanon.dabceac4c2e9a1f7e7ee9d5fdd3d8f81.38
                0x00000000400311e0       0x37 bin/obj/rslib.a(core-9bc28a7f9131c3bd.core.d226853cd57cf678-cgu.0.rcgu.o)
 *fill*         0x0000000040031217        0x1 
 .rodata..Lanon.dabceac4c2e9a1f7e7ee9d5fdd3d8f81.39
                0x0000000040031218       0x18 bin/obj/rslib.a(core-9bc28a7f9131c3bd.core.d226853cd57cf678-cgu.0.rcgu.o)
 .rodata..Lanon.dabceac4c2e9a1f7e7ee9d5fdd3d8f81.40
                0x0000000040031230       0x36 bin/obj/rslib.a(core-9bc28a7f9131c3bd.core.d226853cd57cf678-cgu.0.rcgu.o)
 *fill*         0x0000000040031266        0x2 
 .rodata..Lanon.dabceac4c2e9a1f7e7ee9d5fdd3d8f81.41
                0x0000000040031268       0x18 bin/obj/rslib.a(core-9bc28a7f9131c3bd.core.d226853cd57cf678-cgu.0.rcgu.o)
 .rodata..Lanon.dabceac4c2e9a1f7e7ee9d5fdd3d8f81.42
                0x0000000040031280       0x18 bin/obj/rslib.a(core-9bc28a7f9131c3bd.core.d226853cd57cf678-cgu.0.rcgu.o)
 .rodata..Lanon.dabceac4c2e9a1f7e7ee9d5fdd3d8f81.43
                0x0000000040031298       0x18 bin/obj/rslib.a(core-9bc28a7f9131c3bd.core.d226853cd57cf678-cgu.0.rcgu.o)
 .rodata..Lanon.dabceac4c2e9a1f7e7ee9d5fdd3d8f81.44
                0x00000000400312b0       0x18 bin/obj/rslib.a(core-9bc28a7f9131c3bd.core.d226853cd57cf678-cgu.0.rcgu.o)
 .rodata..Lanon.dabceac4c2e9a1f7e7ee9d5fdd3d8f81.45
                0x00000000400312c8       0x18 bin/obj/rslib.a(core-9bc28a7f9131c3bd.core.d226853cd57cf678-cgu.0.rcgu.o)
 .rodata..Lanon.dabceac4c2e9a1f7e7ee9d5fdd3d8f81.46
                0x00000000400312e0       0x18 bin/obj/rslib.a(core-9bc28a7f9131c3bd.core.d226853cd57cf678-cgu.0.rcgu.o)
 .rodata..Lanon.dabceac4c2e9a1f7e7ee9d5fdd3d8f81.47
                0x00000000400312f8       0x18 bin/obj/rslib.a(core-9bc28a7f9131c3bd.core.d226853cd57cf678-cgu.0.rcgu.o)
 .rodata..Lanon.dabceac4c2e9a1f7e7ee9d5fdd3d8f81.48
                0x0000000040031310       0x18 bin/obj/rslib.a(core-9bc28a7f9131c3bd.core.d226853cd57cf678-cgu.0.rcgu.o)
 .rodata..Lanon.dabceac4c2e9a1f7e7ee9d5fdd3d8f81.49
                0x0000000040031328       0x18 bin/obj/rslib.a(core-9bc28a7f9131c3bd.core.d226853cd57cf678-cgu.0.rcgu.o)
 .rodata..Lanon.dabceac4c2e9a1f7e7ee9d5fdd3d8f81.50
                0x0000000040031340       0x18 bin/obj/rslib.a(core-9bc28a7f9131c3bd.core.d226853cd57cf678-cgu.0.rcgu.o)
 .rodata..Lanon.dabceac4c2e9a1f7e7ee9d5fdd3d8f81.51
                0x0000000040031358       0x18 bin/obj/rslib.a(core-9bc28a7f9131c3bd.core.d226853cd57cf678-cgu.0.rcgu.o)
 .rodata._ZN4core3num7flt2dec8strategy5grisu12CACHED_POW1017hd51165d16465790fE
                0x0000000040031370      0x510 bin/obj/rslib.a(core-9bc28a7f9131c3bd.core.d226853cd57cf678-cgu.0.rcgu.o)
                0x0000000040031370                core::num::flt2dec::strategy::grisu::CACHED_POW10
 .rodata..Lanon.dabceac4c2e9a1f7e7ee9d5fdd3d8f81.53
                0x0000000040031880       0x18 bin/obj/rslib.a(core-9bc28a7f9131c3bd.core.d226853cd57cf678-cgu.0.rcgu.o)
 .rodata..Lanon.dabceac4c2e9a1f7e7ee9d5fdd3d8f81.54
                0x0000000040031898       0x18 bin/obj/rslib.a(core-9bc28a7f9131c3bd.core.d226853cd57cf678-cgu.0.rcgu.o)
 .rodata..Lanon.dabceac4c2e9a1f7e7ee9d5fdd3d8f81.55
                0x00000000400318b0       0x18 bin/obj/rslib.a(core-9bc28a7f9131c3bd.core.d226853cd57cf678-cgu.0.rcgu.o)
 .rodata..Lanon.dabceac4c2e9a1f7e7ee9d5fdd3d8f81.56
                0x00000000400318c8       0x18 bin/obj/rslib.a(core-9bc28a7f9131c3bd.core.d226853cd57cf678-cgu.0.rcgu.o)
 .rodata..Lanon.dabceac4c2e9a1f7e7ee9d5fdd3d8f81.57
                0x00000000400318e0       0x18 bin/obj/rslib.a(core-9bc28a7f9131c3bd.core.d226853cd57cf678-cgu.0.rcgu.o)
 .rodata..Lanon.dabceac4c2e9a1f7e7ee9d5fdd3d8f81.58
                0x00000000400318f8       0x2d bin/obj/rslib.a(core-9bc28a7f9131c3bd.core.d226853cd57cf678-cgu.0.rcgu.o)
 *fill*         0x0000000040031925        0x3 
 .rodata..Lanon.dabceac4c2e9a1f7e7ee9d5fdd3d8f81.59
                0x0000000040031928       0x18 bin/obj/rslib.a(core-9bc28a7f9131c3bd.core.d226853cd57cf678-cgu.0.rcgu.o)
 .rodata..Lanon.dabceac4c2e9a1f7e7ee9d5fdd3d8f81.60
                0x0000000040031940       0x18 bin/obj/rslib.a(core-9bc28a7f9131c3bd.core.d226853cd57cf678-cgu.0.rcgu.o)
 .rodata..Lanon.dabceac4c2e9a1f7e7ee9d5fdd3d8f81.61
                0x0000000040031958       0x18 bin/obj/rslib.a(core-9bc28a7f9131c3bd.core.d226853cd57cf678-cgu.0.rcgu.o)
 .rodata..Lanon.dabceac4c2e9a1f7e7ee9d5fdd3d8f81.62
                0x0000000040031970       0x18 bin/obj/rslib.a(core-9bc28a7f9131c3bd.core.d226853cd57cf678-cgu.0.rcgu.o)
 .rodata..Lanon.dabceac4c2e9a1f7e7ee9d5fdd3d8f81.63
                0x0000000040031988       0x18 bin/obj/rslib.a(core-9bc28a7f9131c3bd.core.d226853cd57cf678-cgu.0.rcgu.o)
 .rodata..Lanon.dabceac4c2e9a1f7e7ee9d5fdd3d8f81.64
                0x00000000400319a0       0x18 bin/obj/rslib.a(core-9bc28a7f9131c3bd.core.d226853cd57cf678-cgu.0.rcgu.o)
 .rodata..Lanon.dabceac4c2e9a1f7e7ee9d5fdd3d8f81.65
                0x00000000400319b8       0x21 bin/obj/rslib.a(core-9bc28a7f9131c3bd.core.d226853cd57cf678-cgu.0.rcgu.o)
 *fill*         0x00000000400319d9        0x7 
 .rodata..Lanon.dabceac4c2e9a1f7e7ee9d5fdd3d8f81.66
                0x00000000400319e0       0x18 bin/obj/rslib.a(core-9bc28a7f9131c3bd.core.d226853cd57cf678-cgu.0.rcgu.o)
 .rodata..Lanon.dabceac4c2e9a1f7e7ee9d5fdd3d8f81.67
                0x00000000400319f8       0x24 bin/obj/rslib.a(core-9bc28a7f9131c3bd.core.d226853cd57cf678-cgu.0.rcgu.o)
 *fill*         0x0000000040031a1c        0x4 
 .rodata..Lanon.dabceac4c2e9a1f7e7ee9d5fdd3d8f81.68
                0x0000000040031a20       0x18 bin/obj/rslib.a(core-9bc28a7f9131c3bd.core.d226853cd57cf678-cgu.0.rcgu.o)
 .rodata..Lanon.dabceac4c2e9a1f7e7ee9d5fdd3d8f81.69
                0x0000000040031a38       0x18 bin/obj/rslib.a(core-9bc28a7f9131c3bd.core.d226853cd57cf678-cgu.0.rcgu.o)
 .rodata..Lanon.dabceac4c2e9a1f7e7ee9d5fdd3d8f81.70
                0x0000000040031a50       0x28 bin/obj/rslib.a(core-9bc28a7f9131c3bd.core.d226853cd57cf678-cgu.0.rcgu.o)
 .rodata..Lanon.dabceac4c2e9a1f7e7ee9d5fdd3d8f81.71
                0x0000000040031a78       0x18 bin/obj/rslib.a(core-9bc28a7f9131c3bd.core.d226853cd57cf678-cgu.0.rcgu.o)
 .rodata..Lanon.dabceac4c2e9a1f7e7ee9d5fdd3d8f81.72
                0x0000000040031a90       0x18 bin/obj/rslib.a(core-9bc28a7f9131c3bd.core.d226853cd57cf678-cgu.0.rcgu.o)
 .rodata..Lanon.dabceac4c2e9a1f7e7ee9d5fdd3d8f81.73
                0x0000000040031aa8       0x18 bin/obj/rslib.a(core-9bc28a7f9131c3bd.core.d226853cd57cf678-cgu.0.rcgu.o)
 .rodata..Lanon.dabceac4c2e9a1f7e7ee9d5fdd3d8f81.74
                0x0000000040031ac0       0x18 bin/obj/rslib.a(core-9bc28a7f9131c3bd.core.d226853cd57cf678-cgu.0.rcgu.o)
 .rodata..Lanon.dabceac4c2e9a1f7e7ee9d5fdd3d8f81.75
                0x0000000040031ad8       0x18 bin/obj/rslib.a(core-9bc28a7f9131c3bd.core.d226853cd57cf678-cgu.0.rcgu.o)
 .rodata..Lanon.dabceac4c2e9a1f7e7ee9d5fdd3d8f81.76
                0x0000000040031af0       0x18 bin/obj/rslib.a(core-9bc28a7f9131c3bd.core.d226853cd57cf678-cgu.0.rcgu.o)
 .rodata..Lanon.dabceac4c2e9a1f7e7ee9d5fdd3d8f81.78
                0x0000000040031b08       0x18 bin/obj/rslib.a(core-9bc28a7f9131c3bd.core.d226853cd57cf678-cgu.0.rcgu.o)
 .rodata..Lanon.dabceac4c2e9a1f7e7ee9d5fdd3d8f81.79
                0x0000000040031b20       0x1f bin/obj/rslib.a(core-9bc28a7f9131c3bd.core.d226853cd57cf678-cgu.0.rcgu.o)
 *fill*         0x0000000040031b3f        0x1 
 .rodata..Lanon.dabceac4c2e9a1f7e7ee9d5fdd3d8f81.80
                0x0000000040031b40       0x18 bin/obj/rslib.a(core-9bc28a7f9131c3bd.core.d226853cd57cf678-cgu.0.rcgu.o)
 .rodata..Lanon.dabceac4c2e9a1f7e7ee9d5fdd3d8f81.81
                0x0000000040031b58       0x22 bin/obj/rslib.a(core-9bc28a7f9131c3bd.core.d226853cd57cf678-cgu.0.rcgu.o)
 *fill*         0x0000000040031b7a        0x6 
 .rodata..Lanon.dabceac4c2e9a1f7e7ee9d5fdd3d8f81.82
                0x0000000040031b80       0x18 bin/obj/rslib.a(core-9bc28a7f9131c3bd.core.d226853cd57cf678-cgu.0.rcgu.o)
 .rodata..Lanon.dabceac4c2e9a1f7e7ee9d5fdd3d8f81.83
                0x0000000040031b98        0x1 bin/obj/rslib.a(core-9bc28a7f9131c3bd.core.d226853cd57cf678-cgu.0.rcgu.o)
 .rodata..Lanon.dabceac4c2e9a1f7e7ee9d5fdd3d8f81.84
                0x0000000040031b99        0x2 bin/obj/rslib.a(core-9bc28a7f9131c3bd.core.d226853cd57cf678-cgu.0.rcgu.o)
 *fill*         0x0000000040031b9b        0x5 
 .rodata..Lanon.dabceac4c2e9a1f7e7ee9d5fdd3d8f81.85
                0x0000000040031ba0       0x18 bin/obj/rslib.a(core-9bc28a7f9131c3bd.core.d226853cd57cf678-cgu.0.rcgu.o)
 .rodata..Lanon.dabceac4c2e9a1f7e7ee9d5fdd3d8f81.86
                0x0000000040031bb8       0x18 bin/obj/rslib.a(core-9bc28a7f9131c3bd.core.d226853cd57cf678-cgu.0.rcgu.o)
 .rodata..Lanon.dabceac4c2e9a1f7e7ee9d5fdd3d8f81.87
                0x0000000040031bd0       0x22 bin/obj/rslib.a(core-9bc28a7f9131c3bd.core.d226853cd57cf678-cgu.0.rcgu.o)
 *fill*         0x0000000040031bf2        0x6 
 .rodata..Lanon.dabceac4c2e9a1f7e7ee9d5fdd3d8f81.88
                0x0000000040031bf8       0x18 bin/obj/rslib.a(core-9bc28a7f9131c3bd.core.d226853cd57cf678-cgu.0.rcgu.o)
 .rodata..Lanon.dabceac4c2e9a1f7e7ee9d5fdd3d8f81.89
                0x0000000040031c10        0x1 bin/obj/rslib.a(core-9bc28a7f9131c3bd.core.d226853cd57cf678-cgu.0.rcgu.o)
 .rodata..Lanon.dabceac4c2e9a1f7e7ee9d5fdd3d8f81.90
                0x0000000040031c11        0x1 bin/obj/rslib.a(core-9bc28a7f9131c3bd.core.d226853cd57cf678-cgu.0.rcgu.o)
 .rodata..Lanon.dabceac4c2e9a1f7e7ee9d5fdd3d8f81.91
                0x0000000040031c12        0x2 bin/obj/rslib.a(core-9bc28a7f9131c3bd.core.d226853cd57cf678-cgu.0.rcgu.o)
 .rodata..Lanon.dabceac4c2e9a1f7e7ee9d5fdd3d8f81.92
                0x0000000040031c14        0x2 bin/obj/rslib.a(core-9bc28a7f9131c3bd.core.d226853cd57cf678-cgu.0.rcgu.o)
 .rodata..Lanon.dabceac4c2e9a1f7e7ee9d5fdd3d8f81.93
                0x0000000040031c16        0x1 bin/obj/rslib.a(core-9bc28a7f9131c3bd.core.d226853cd57cf678-cgu.0.rcgu.o)
 .rodata..Lanon.dabceac4c2e9a1f7e7ee9d5fdd3d8f81.94
                0x0000000040031c17        0x1 bin/obj/rslib.a(core-9bc28a7f9131c3bd.core.d226853cd57cf678-cgu.0.rcgu.o)
 .rodata..Lanon.dabceac4c2e9a1f7e7ee9d5fdd3d8f81.95
                0x0000000040031c18        0x3 bin/obj/rslib.a(core-9bc28a7f9131c3bd.core.d226853cd57cf678-cgu.0.rcgu.o)
 .rodata..Lanon.dabceac4c2e9a1f7e7ee9d5fdd3d8f81.96
                0x0000000040031c1b        0x3 bin/obj/rslib.a(core-9bc28a7f9131c3bd.core.d226853cd57cf678-cgu.0.rcgu.o)
 .rodata..Lanon.dabceac4c2e9a1f7e7ee9d5fdd3d8f81.97
                0x0000000040031c1e        0x1 bin/obj/rslib.a(core-9bc28a7f9131c3bd.core.d226853cd57cf678-cgu.0.rcgu.o)
 .rodata..Lanon.dabceac4c2e9a1f7e7ee9d5fdd3d8f81.98
                0x0000000040031c1f        0x3 bin/obj/rslib.a(core-9bc28a7f9131c3bd.core.d226853cd57cf678-cgu.0.rcgu.o)
 .rodata..Lanon.dabceac4c2e9a1f7e7ee9d5fdd3d8f81.99
                0x0000000040031c22        0x3 bin/obj/rslib.a(core-9bc28a7f9131c3bd.core.d226853cd57cf678-cgu.0.rcgu.o)
 .rodata..Lanon.dabceac4c2e9a1f7e7ee9d5fdd3d8f81.100
                0x0000000040031c25       0x1d bin/obj/rslib.a(core-9bc28a7f9131c3bd.core.d226853cd57cf678-cgu.0.rcgu.o)
 *fill*         0x0000000040031c42        0x6 
 .rodata..Lanon.dabceac4c2e9a1f7e7ee9d5fdd3d8f81.101
                0x0000000040031c48       0x18 bin/obj/rslib.a(core-9bc28a7f9131c3bd.core.d226853cd57cf678-cgu.0.rcgu.o)
 .rodata..Lanon.dabceac4c2e9a1f7e7ee9d5fdd3d8f81.102
                0x0000000040031c60        0x2 bin/obj/rslib.a(core-9bc28a7f9131c3bd.core.d226853cd57cf678-cgu.0.rcgu.o)
 .rodata..Lanon.dabceac4c2e9a1f7e7ee9d5fdd3d8f81.103
                0x0000000040031c62        0x2 bin/obj/rslib.a(core-9bc28a7f9131c3bd.core.d226853cd57cf678-cgu.0.rcgu.o)
 .rodata..Lanon.dabceac4c2e9a1f7e7ee9d5fdd3d8f81.104
                0x0000000040031c64       0x3d bin/obj/rslib.a(core-9bc28a7f9131c3bd.core.d226853cd57cf678-cgu.0.rcgu.o)
 *fill*         0x0000000040031ca1        0x7 
 .rodata..Lanon.dabceac4c2e9a1f7e7ee9d5fdd3d8f81.105
                0x0000000040031ca8       0x18 bin/obj/rslib.a(core-9bc28a7f9131c3bd.core.d226853cd57cf678-cgu.0.rcgu.o)
 .rodata..Lanon.dabceac4c2e9a1f7e7ee9d5fdd3d8f81.106
                0x0000000040031cc0       0x18 bin/obj/rslib.a(core-9bc28a7f9131c3bd.core.d226853cd57cf678-cgu.0.rcgu.o)
 .rodata..Lanon.dabceac4c2e9a1f7e7ee9d5fdd3d8f81.107
                0x0000000040031cd8       0x25 bin/obj/rslib.a(core-9bc28a7f9131c3bd.core.d226853cd57cf678-cgu.0.rcgu.o)
 *fill*         0x0000000040031cfd        0x3 
 .rodata..Lanon.dabceac4c2e9a1f7e7ee9d5fdd3d8f81.108
                0x0000000040031d00       0x18 bin/obj/rslib.a(core-9bc28a7f9131c3bd.core.d226853cd57cf678-cgu.0.rcgu.o)
 .rodata..Lanon.dabceac4c2e9a1f7e7ee9d5fdd3d8f81.110
                0x0000000040031d18       0x18 bin/obj/rslib.a(core-9bc28a7f9131c3bd.core.d226853cd57cf678-cgu.0.rcgu.o)
 .rodata..Lanon.dabceac4c2e9a1f7e7ee9d5fdd3d8f81.111
                0x0000000040031d30       0x18 bin/obj/rslib.a(core-9bc28a7f9131c3bd.core.d226853cd57cf678-cgu.0.rcgu.o)
 .rodata..Lanon.dabceac4c2e9a1f7e7ee9d5fdd3d8f81.112
                0x0000000040031d48       0x18 bin/obj/rslib.a(core-9bc28a7f9131c3bd.core.d226853cd57cf678-cgu.0.rcgu.o)
 .rodata..Lanon.dabceac4c2e9a1f7e7ee9d5fdd3d8f81.113
                0x0000000040031d60       0x2f bin/obj/rslib.a(core-9bc28a7f9131c3bd.core.d226853cd57cf678-cgu.0.rcgu.o)
 .rodata..Lanon.dabceac4c2e9a1f7e7ee9d5fdd3d8f81.114
                0x0000000040031d8f       0x26 bin/obj/rslib.a(core-9bc28a7f9131c3bd.core.d226853cd57cf678-cgu.0.rcgu.o)
 .rodata..Lanon.dabceac4c2e9a1f7e7ee9d5fdd3d8f81.115
                0x0000000040031db5       0x1d bin/obj/rslib.a(core-9bc28a7f9131c3bd.core.d226853cd57cf678-cgu.0.rcgu.o)
 .rodata..Lanon.dabceac4c2e9a1f7e7ee9d5fdd3d8f81.116
                0x0000000040031dd2       0x26 bin/obj/rslib.a(core-9bc28a7f9131c3bd.core.d226853cd57cf678-cgu.0.rcgu.o)
 .rodata..Lanon.dabceac4c2e9a1f7e7ee9d5fdd3d8f81.117
                0x0000000040031df8       0x26 bin/obj/rslib.a(core-9bc28a7f9131c3bd.core.d226853cd57cf678-cgu.0.rcgu.o)
 .rodata..Lanon.dabceac4c2e9a1f7e7ee9d5fdd3d8f81.118
                0x0000000040031e1e       0x26 bin/obj/rslib.a(core-9bc28a7f9131c3bd.core.d226853cd57cf678-cgu.0.rcgu.o)
 .rodata..Lanon.dabceac4c2e9a1f7e7ee9d5fdd3d8f81.119
                0x0000000040031e44       0x2e bin/obj/rslib.a(core-9bc28a7f9131c3bd.core.d226853cd57cf678-cgu.0.rcgu.o)
 *fill*         0x0000000040031e72        0x6 
 .rodata..Lanon.dabceac4c2e9a1f7e7ee9d5fdd3d8f81.120
                0x0000000040031e78       0x10 bin/obj/rslib.a(core-9bc28a7f9131c3bd.core.d226853cd57cf678-cgu.0.rcgu.o)
 .rodata..Lanon.dabceac4c2e9a1f7e7ee9d5fdd3d8f81.121
                0x0000000040031e88       0x32 bin/obj/rslib.a(core-9bc28a7f9131c3bd.core.d226853cd57cf678-cgu.0.rcgu.o)
 *fill*         0x0000000040031eba        0x6 
 .rodata..Lanon.dabceac4c2e9a1f7e7ee9d5fdd3d8f81.122
                0x0000000040031ec0       0x10 bin/obj/rslib.a(core-9bc28a7f9131c3bd.core.d226853cd57cf678-cgu.0.rcgu.o)
 .rodata..Lanon.dabceac4c2e9a1f7e7ee9d5fdd3d8f81.123
                0x0000000040031ed0       0x1c bin/obj/rslib.a(core-9bc28a7f9131c3bd.core.d226853cd57cf678-cgu.0.rcgu.o)
 *fill*         0x0000000040031eec        0x4 
 .rodata..Lanon.dabceac4c2e9a1f7e7ee9d5fdd3d8f81.124
                0x0000000040031ef0       0x10 bin/obj/rslib.a(core-9bc28a7f9131c3bd.core.d226853cd57cf678-cgu.0.rcgu.o)
 .rodata..Lanon.dabceac4c2e9a1f7e7ee9d5fdd3d8f81.125
                0x0000000040031f00       0x21 bin/obj/rslib.a(core-9bc28a7f9131c3bd.core.d226853cd57cf678-cgu.0.rcgu.o)
 *fill*         0x0000000040031f21        0x7 
 .rodata..Lanon.dabceac4c2e9a1f7e7ee9d5fdd3d8f81.126
                0x0000000040031f28       0x10 bin/obj/rslib.a(core-9bc28a7f9131c3bd.core.d226853cd57cf678-cgu.0.rcgu.o)
 .rodata..Lanon.dabceac4c2e9a1f7e7ee9d5fdd3d8f81.127
                0x0000000040031f38       0x21 bin/obj/rslib.a(core-9bc28a7f9131c3bd.core.d226853cd57cf678-cgu.0.rcgu.o)
 *fill*         0x0000000040031f59        0x7 
 .rodata..Lanon.dabceac4c2e9a1f7e7ee9d5fdd3d8f81.128
                0x0000000040031f60       0x10 bin/obj/rslib.a(core-9bc28a7f9131c3bd.core.d226853cd57cf678-cgu.0.rcgu.o)
 .rodata..Lanon.dabceac4c2e9a1f7e7ee9d5fdd3d8f81.129
                0x0000000040031f70       0x1f bin/obj/rslib.a(core-9bc28a7f9131c3bd.core.d226853cd57cf678-cgu.0.rcgu.o)
 *fill*         0x0000000040031f8f        0x1 
 .rodata..Lanon.dabceac4c2e9a1f7e7ee9d5fdd3d8f81.130
                0x0000000040031f90       0x10 bin/obj/rslib.a(core-9bc28a7f9131c3bd.core.d226853cd57cf678-cgu.0.rcgu.o)
 .rodata..Lanon.dabceac4c2e9a1f7e7ee9d5fdd3d8f81.131
                0x0000000040031fa0       0x30 bin/obj/rslib.a(core-9bc28a7f9131c3bd.core.d226853cd57cf678-cgu.0.rcgu.o)
 .rodata..Lanon.dabceac4c2e9a1f7e7ee9d5fdd3d8f81.132
                0x0000000040031fd0       0x10 bin/obj/rslib.a(core-9bc28a7f9131c3bd.core.d226853cd57cf678-cgu.0.rcgu.o)
 .rodata..Lanon.dabceac4c2e9a1f7e7ee9d5fdd3d8f81.133
                0x0000000040031fe0       0x1f bin/obj/rslib.a(core-9bc28a7f9131c3bd.core.d226853cd57cf678-cgu.0.rcgu.o)
 *fill*         0x0000000040031fff        0x1 
 .rodata..Lanon.dabceac4c2e9a1f7e7ee9d5fdd3d8f81.134
                0x0000000040032000       0x10 bin/obj/rslib.a(core-9bc28a7f9131c3bd.core.d226853cd57cf678-cgu.0.rcgu.o)
 .rodata..Lanon.dabceac4c2e9a1f7e7ee9d5fdd3d8f81.135
                0x0000000040032010       0x24 bin/obj/rslib.a(core-9bc28a7f9131c3bd.core.d226853cd57cf678-cgu.0.rcgu.o)
 *fill*         0x0000000040032034        0x4 
 .rodata..Lanon.dabceac4c2e9a1f7e7ee9d5fdd3d8f81.136
                0x0000000040032038       0x10 bin/obj/rslib.a(core-9bc28a7f9131c3bd.core.d226853cd57cf678-cgu.0.rcgu.o)
 .rodata..Lanon.dabceac4c2e9a1f7e7ee9d5fdd3d8f81.137
                0x0000000040032048       0x23 bin/obj/rslib.a(core-9bc28a7f9131c3bd.core.d226853cd57cf678-cgu.0.rcgu.o)
 *fill*         0x000000004003206b        0x5 
 .rodata..Lanon.dabceac4c2e9a1f7e7ee9d5fdd3d8f81.138
                0x0000000040032070       0x10 bin/obj/rslib.a(core-9bc28a7f9131c3bd.core.d226853cd57cf678-cgu.0.rcgu.o)
 .rodata..Lanon.dabceac4c2e9a1f7e7ee9d5fdd3d8f81.139
                0x0000000040032080        0x7 bin/obj/rslib.a(core-9bc28a7f9131c3bd.core.d226853cd57cf678-cgu.0.rcgu.o)
 .rodata..Lanon.dabceac4c2e9a1f7e7ee9d5fdd3d8f81.140
                0x0000000040032087        0x1 bin/obj/rslib.a(core-9bc28a7f9131c3bd.core.d226853cd57cf678-cgu.0.rcgu.o)
 .rodata..Lanon.dabceac4c2e9a1f7e7ee9d5fdd3d8f81.141
                0x0000000040032088       0x30 bin/obj/rslib.a(core-9bc28a7f9131c3bd.core.d226853cd57cf678-cgu.0.rcgu.o)
 .rodata..Lanon.dabceac4c2e9a1f7e7ee9d5fdd3d8f81.142
                0x00000000400320b8        0x7 bin/obj/rslib.a(core-9bc28a7f9131c3bd.core.d226853cd57cf678-cgu.0.rcgu.o)
 .rodata..Lanon.dabceac4c2e9a1f7e7ee9d5fdd3d8f81.143
                0x00000000400320bf        0x2 bin/obj/rslib.a(core-9bc28a7f9131c3bd.core.d226853cd57cf678-cgu.0.rcgu.o)
 .rodata..Lanon.dabceac4c2e9a1f7e7ee9d5fdd3d8f81.144
                0x00000000400320c1        0x3 bin/obj/rslib.a(core-9bc28a7f9131c3bd.core.d226853cd57cf678-cgu.0.rcgu.o)
 .rodata..Lanon.dabceac4c2e9a1f7e7ee9d5fdd3d8f81.145
                0x00000000400320c4        0x7 bin/obj/rslib.a(core-9bc28a7f9131c3bd.core.d226853cd57cf678-cgu.0.rcgu.o)
 *fill*         0x00000000400320cb        0x5 
 .rodata..Lanon.dabceac4c2e9a1f7e7ee9d5fdd3d8f81.146
                0x00000000400320d0       0x20 bin/obj/rslib.a(core-9bc28a7f9131c3bd.core.d226853cd57cf678-cgu.0.rcgu.o)
 .rodata..Lanon.dabceac4c2e9a1f7e7ee9d5fdd3d8f81.147
                0x00000000400320f0       0x30 bin/obj/rslib.a(core-9bc28a7f9131c3bd.core.d226853cd57cf678-cgu.0.rcgu.o)
 .rodata..Lanon.dabceac4c2e9a1f7e7ee9d5fdd3d8f81.149
                0x0000000040032120        0xd bin/obj/rslib.a(core-9bc28a7f9131c3bd.core.d226853cd57cf678-cgu.0.rcgu.o)
 .rodata..Lanon.dabceac4c2e9a1f7e7ee9d5fdd3d8f81.150
                0x000000004003212d        0x1 bin/obj/rslib.a(core-9bc28a7f9131c3bd.core.d226853cd57cf678-cgu.0.rcgu.o)
 .rodata..Lanon.dabceac4c2e9a1f7e7ee9d5fdd3d8f81.152
                0x000000004003212e        0x2 bin/obj/rslib.a(core-9bc28a7f9131c3bd.core.d226853cd57cf678-cgu.0.rcgu.o)
 .rodata..Lanon.dabceac4c2e9a1f7e7ee9d5fdd3d8f81.153
                0x0000000040032130        0x3 bin/obj/rslib.a(core-9bc28a7f9131c3bd.core.d226853cd57cf678-cgu.0.rcgu.o)
 .rodata..Lanon.dabceac4c2e9a1f7e7ee9d5fdd3d8f81.154
                0x0000000040032133       0x2e bin/obj/rslib.a(core-9bc28a7f9131c3bd.core.d226853cd57cf678-cgu.0.rcgu.o)
 *fill*         0x0000000040032161        0x7 
 .rodata..Lanon.dabceac4c2e9a1f7e7ee9d5fdd3d8f81.155
                0x0000000040032168       0x10 bin/obj/rslib.a(core-9bc28a7f9131c3bd.core.d226853cd57cf678-cgu.0.rcgu.o)
 .rodata..Lanon.dabceac4c2e9a1f7e7ee9d5fdd3d8f81.157
                0x0000000040032178       0x18 bin/obj/rslib.a(core-9bc28a7f9131c3bd.core.d226853cd57cf678-cgu.0.rcgu.o)
 .rodata.cst32  0x0000000040032190       0x80 bin/obj/rslib.a(core-9bc28a7f9131c3bd.core.d226853cd57cf678-cgu.0.rcgu.o)
 .rodata..Lanon.dabceac4c2e9a1f7e7ee9d5fdd3d8f81.159
                0x0000000040032210       0x18 bin/obj/rslib.a(core-9bc28a7f9131c3bd.core.d226853cd57cf678-cgu.0.rcgu.o)
 .rodata..Lanon.dabceac4c2e9a1f7e7ee9d5fdd3d8f81.160
                0x0000000040032228       0x23 bin/obj/rslib.a(core-9bc28a7f9131c3bd.core.d226853cd57cf678-cgu.0.rcgu.o)
 .rodata..Lanon.dabceac4c2e9a1f7e7ee9d5fdd3d8f81.161
                0x000000004003224b       0x1d bin/obj/rslib.a(core-9bc28a7f9131c3bd.core.d226853cd57cf678-cgu.0.rcgu.o)
 .rodata..Lanon.dabceac4c2e9a1f7e7ee9d5fdd3d8f81.162
                0x0000000040032268       0x29 bin/obj/rslib.a(core-9bc28a7f9131c3bd.core.d226853cd57cf678-cgu.0.rcgu.o)
 .rodata..Lanon.dabceac4c2e9a1f7e7ee9d5fdd3d8f81.163
                0x0000000040032291       0x1a bin/obj/rslib.a(core-9bc28a7f9131c3bd.core.d226853cd57cf678-cgu.0.rcgu.o)
 *fill*         0x00000000400322ab        0x5 
 .rodata..Lanon.dabceac4c2e9a1f7e7ee9d5fdd3d8f81.164
                0x00000000400322b0       0x10 bin/obj/rslib.a(core-9bc28a7f9131c3bd.core.d226853cd57cf678-cgu.0.rcgu.o)
 .rodata..Lanon.dabceac4c2e9a1f7e7ee9d5fdd3d8f81.165
                0x00000000400322c0       0x47 bin/obj/rslib.a(core-9bc28a7f9131c3bd.core.d226853cd57cf678-cgu.0.rcgu.o)
 *fill*         0x0000000040032307        0x1 
 .rodata..Lanon.dabceac4c2e9a1f7e7ee9d5fdd3d8f81.166
                0x0000000040032308       0x10 bin/obj/rslib.a(core-9bc28a7f9131c3bd.core.d226853cd57cf678-cgu.0.rcgu.o)
 .rodata..Lanon.dabceac4c2e9a1f7e7ee9d5fdd3d8f81.168
                0x0000000040032318       0x18 bin/obj/rslib.a(core-9bc28a7f9131c3bd.core.d226853cd57cf678-cgu.0.rcgu.o)
 .rodata..Lanon.dabceac4c2e9a1f7e7ee9d5fdd3d8f81.169
                0x0000000040032330       0x1f bin/obj/rslib.a(core-9bc28a7f9131c3bd.core.d226853cd57cf678-cgu.0.rcgu.o)
 .rodata..Lanon.dabceac4c2e9a1f7e7ee9d5fdd3d8f81.170
                0x000000004003234f       0x24 bin/obj/rslib.a(core-9bc28a7f9131c3bd.core.d226853cd57cf678-cgu.0.rcgu.o)
 .rodata..Lanon.dabceac4c2e9a1f7e7ee9d5fdd3d8f81.171
                0x0000000040032373       0x2b bin/obj/rslib.a(core-9bc28a7f9131c3bd.core.d226853cd57cf678-cgu.0.rcgu.o)
 .rodata..Lanon.dabceac4c2e9a1f7e7ee9d5fdd3d8f81.172
                0x000000004003239e       0x23 bin/obj/rslib.a(core-9bc28a7f9131c3bd.core.d226853cd57cf678-cgu.0.rcgu.o)
 .rodata..Lanon.dabceac4c2e9a1f7e7ee9d5fdd3d8f81.173
                0x00000000400323c1        0xd bin/obj/rslib.a(core-9bc28a7f9131c3bd.core.d226853cd57cf678-cgu.0.rcgu.o)
 *fill*         0x00000000400323ce        0x2 
 .rodata..Lanon.dabceac4c2e9a1f7e7ee9d5fdd3d8f81.174
                0x00000000400323d0       0x10 bin/obj/rslib.a(core-9bc28a7f9131c3bd.core.d226853cd57cf678-cgu.0.rcgu.o)
 .rodata..Lanon.dabceac4c2e9a1f7e7ee9d5fdd3d8f81.175
                0x00000000400323e0        0x6 bin/obj/rslib.a(core-9bc28a7f9131c3bd.core.d226853cd57cf678-cgu.0.rcgu.o)
 .rodata..Lanon.dabceac4c2e9a1f7e7ee9d5fdd3d8f81.176
                0x00000000400323e6        0xb bin/obj/rslib.a(core-9bc28a7f9131c3bd.core.d226853cd57cf678-cgu.0.rcgu.o)
 *fill*         0x00000000400323f1        0x7 
 .rodata..Lanon.dabceac4c2e9a1f7e7ee9d5fdd3d8f81.177
                0x00000000400323f8       0x20 bin/obj/rslib.a(core-9bc28a7f9131c3bd.core.d226853cd57cf678-cgu.0.rcgu.o)
 .rodata.cst4   0x0000000040032418       0x20 bin/obj/rslib.a(core-9bc28a7f9131c3bd.core.d226853cd57cf678-cgu.0.rcgu.o)
 .rodata..Lanon.dabceac4c2e9a1f7e7ee9d5fdd3d8f81.179
                0x0000000040032438        0x6 bin/obj/rslib.a(core-9bc28a7f9131c3bd.core.d226853cd57cf678-cgu.0.rcgu.o)
 *fill*         0x000000004003243e        0x2 
 .rodata..Lanon.dabceac4c2e9a1f7e7ee9d5fdd3d8f81.181
                0x0000000040032440       0x40 bin/obj/rslib.a(core-9bc28a7f9131c3bd.core.d226853cd57cf678-cgu.0.rcgu.o)
 .rodata..Lanon.dabceac4c2e9a1f7e7ee9d5fdd3d8f81.183
                0x0000000040032480       0x18 bin/obj/rslib.a(core-9bc28a7f9131c3bd.core.d226853cd57cf678-cgu.0.rcgu.o)
 .rodata..Lanon.dabceac4c2e9a1f7e7ee9d5fdd3d8f81.184
                0x0000000040032498       0x20 bin/obj/rslib.a(core-9bc28a7f9131c3bd.core.d226853cd57cf678-cgu.0.rcgu.o)
 .rodata..Lanon.dabceac4c2e9a1f7e7ee9d5fdd3d8f81.185
                0x00000000400324b8       0x2b bin/obj/rslib.a(core-9bc28a7f9131c3bd.core.d226853cd57cf678-cgu.0.rcgu.o)
 *fill*         0x00000000400324e3        0x5 
 .rodata..Lanon.dabceac4c2e9a1f7e7ee9d5fdd3d8f81.187
                0x00000000400324e8       0x18 bin/obj/rslib.a(core-9bc28a7f9131c3bd.core.d226853cd57cf678-cgu.0.rcgu.o)
 .rodata..Lanon.dabceac4c2e9a1f7e7ee9d5fdd3d8f81.188
                0x0000000040032500       0x18 bin/obj/rslib.a(core-9bc28a7f9131c3bd.core.d226853cd57cf678-cgu.0.rcgu.o)
 .rodata..Lanon.dabceac4c2e9a1f7e7ee9d5fdd3d8f81.189
                0x0000000040032518        0x7 bin/obj/rslib.a(core-9bc28a7f9131c3bd.core.d226853cd57cf678-cgu.0.rcgu.o)
 *fill*         0x000000004003251f        0x1 
 .rodata..Lanon.dabceac4c2e9a1f7e7ee9d5fdd3d8f81.190
                0x0000000040032520       0x10 bin/obj/rslib.a(core-9bc28a7f9131c3bd.core.d226853cd57cf678-cgu.0.rcgu.o)
 .rodata..Lanon.dabceac4c2e9a1f7e7ee9d5fdd3d8f81.191
                0x0000000040032530        0x2 bin/obj/rslib.a(core-9bc28a7f9131c3bd.core.d226853cd57cf678-cgu.0.rcgu.o)
 *fill*         0x0000000040032532        0x6 
 .rodata..Lanon.dabceac4c2e9a1f7e7ee9d5fdd3d8f81.192
                0x0000000040032538       0x18 bin/obj/rslib.a(core-9bc28a7f9131c3bd.core.d226853cd57cf678-cgu.0.rcgu.o)
 .rodata..Lanon.dabceac4c2e9a1f7e7ee9d5fdd3d8f81.194
                0x0000000040032550       0x18 bin/obj/rslib.a(core-9bc28a7f9131c3bd.core.d226853cd57cf678-cgu.0.rcgu.o)
 .rodata..Lanon.dabceac4c2e9a1f7e7ee9d5fdd3d8f81.195
                0x0000000040032568       0x18 bin/obj/rslib.a(core-9bc28a7f9131c3bd.core.d226853cd57cf678-cgu.0.rcgu.o)
 .rodata..Lanon.dabceac4c2e9a1f7e7ee9d5fdd3d8f81.196
                0x0000000040032580       0x18 bin/obj/rslib.a(core-9bc28a7f9131c3bd.core.d226853cd57cf678-cgu.0.rcgu.o)
 .rodata..Lanon.dabceac4c2e9a1f7e7ee9d5fdd3d8f81.197
                0x0000000040032598       0x19 bin/obj/rslib.a(core-9bc28a7f9131c3bd.core.d226853cd57cf678-cgu.0.rcgu.o)
 .rodata..Lanon.dabceac4c2e9a1f7e7ee9d5fdd3d8f81.198
                0x00000000400325b1       0x1b bin/obj/rslib.a(core-9bc28a7f9131c3bd.core.d226853cd57cf678-cgu.0.rcgu.o)
 .rodata..Lanon.dabceac4c2e9a1f7e7ee9d5fdd3d8f81.199
                0x00000000400325cc       0x1b bin/obj/rslib.a(core-9bc28a7f9131c3bd.core.d226853cd57cf678-cgu.0.rcgu.o)
 .rodata..Lanon.dabceac4c2e9a1f7e7ee9d5fdd3d8f81.200
                0x00000000400325e7       0x1d bin/obj/rslib.a(core-9bc28a7f9131c3bd.core.d226853cd57cf678-cgu.0.rcgu.o)
 .rodata..Lanon.dabceac4c2e9a1f7e7ee9d5fdd3d8f81.201
                0x0000000040032604       0x22 bin/obj/rslib.a(core-9bc28a7f9131c3bd.core.d226853cd57cf678-cgu.0.rcgu.o)
 .rodata..Lanon.dabceac4c2e9a1f7e7ee9d5fdd3d8f81.202
                0x0000000040032626       0x22 bin/obj/rslib.a(core-9bc28a7f9131c3bd.core.d226853cd57cf678-cgu.0.rcgu.o)
 .rodata..Lanon.dabceac4c2e9a1f7e7ee9d5fdd3d8f81.203
                0x0000000040032648        0x1 bin/obj/rslib.a(core-9bc28a7f9131c3bd.core.d226853cd57cf678-cgu.0.rcgu.o)
 *fill*         0x0000000040032649        0x7 
 .rodata..Lanon.dabceac4c2e9a1f7e7ee9d5fdd3d8f81.204
                0x0000000040032650       0x20 bin/obj/rslib.a(core-9bc28a7f9131c3bd.core.d226853cd57cf678-cgu.0.rcgu.o)
 .rodata..Lanon.dabceac4c2e9a1f7e7ee9d5fdd3d8f81.206
                0x0000000040032670       0x18 bin/obj/rslib.a(core-9bc28a7f9131c3bd.core.d226853cd57cf678-cgu.0.rcgu.o)
 .rodata..Lanon.dabceac4c2e9a1f7e7ee9d5fdd3d8f81.207
                0x0000000040032688        0x1 bin/obj/rslib.a(core-9bc28a7f9131c3bd.core.d226853cd57cf678-cgu.0.rcgu.o)
 .rodata..Lanon.dabceac4c2e9a1f7e7ee9d5fdd3d8f81.208
                0x0000000040032689        0x2 bin/obj/rslib.a(core-9bc28a7f9131c3bd.core.d226853cd57cf678-cgu.0.rcgu.o)
 *fill*         0x000000004003268b        0x5 
 .rodata..Lanon.dabceac4c2e9a1f7e7ee9d5fdd3d8f81.209
                0x0000000040032690       0x20 bin/obj/rslib.a(core-9bc28a7f9131c3bd.core.d226853cd57cf678-cgu.0.rcgu.o)
 .rodata..Lanon.dabceac4c2e9a1f7e7ee9d5fdd3d8f81.210
                0x00000000400326b0        0x1 bin/obj/rslib.a(core-9bc28a7f9131c3bd.core.d226853cd57cf678-cgu.0.rcgu.o)
 *fill*         0x00000000400326b1        0x7 
 .rodata..Lanon.dabceac4c2e9a1f7e7ee9d5fdd3d8f81.211
                0x00000000400326b8       0x30 bin/obj/rslib.a(core-9bc28a7f9131c3bd.core.d226853cd57cf678-cgu.0.rcgu.o)
 .rodata..Lanon.dabceac4c2e9a1f7e7ee9d5fdd3d8f81.212
                0x00000000400326e8       0x18 bin/obj/rslib.a(core-9bc28a7f9131c3bd.core.d226853cd57cf678-cgu.0.rcgu.o)
 .rodata..Lanon.dabceac4c2e9a1f7e7ee9d5fdd3d8f81.213
                0x0000000040032700       0x2b bin/obj/rslib.a(core-9bc28a7f9131c3bd.core.d226853cd57cf678-cgu.0.rcgu.o)
 *fill*         0x000000004003272b        0x5 
 .rodata..Lanon.dabceac4c2e9a1f7e7ee9d5fdd3d8f81.215
                0x0000000040032730       0x20 bin/obj/rslib.a(core-9bc28a7f9131c3bd.core.d226853cd57cf678-cgu.0.rcgu.o)
 .rodata..Lanon.dabceac4c2e9a1f7e7ee9d5fdd3d8f81.217
                0x0000000040032750       0x20 bin/obj/rslib.a(core-9bc28a7f9131c3bd.core.d226853cd57cf678-cgu.0.rcgu.o)
 .rodata..Lanon.dabceac4c2e9a1f7e7ee9d5fdd3d8f81.219
                0x0000000040032770        0x6 bin/obj/rslib.a(core-9bc28a7f9131c3bd.core.d226853cd57cf678-cgu.0.rcgu.o)
 *fill*         0x0000000040032776        0x2 
 .rodata..Lanon.dabceac4c2e9a1f7e7ee9d5fdd3d8f81.220
                0x0000000040032778       0x30 bin/obj/rslib.a(core-9bc28a7f9131c3bd.core.d226853cd57cf678-cgu.0.rcgu.o)
 .rodata..Lanon.dabceac4c2e9a1f7e7ee9d5fdd3d8f81.221
                0x00000000400327a8        0xc bin/obj/rslib.a(core-9bc28a7f9131c3bd.core.d226853cd57cf678-cgu.0.rcgu.o)
 .rodata..Lanon.dabceac4c2e9a1f7e7ee9d5fdd3d8f81.222
                0x00000000400327b4        0x2 bin/obj/rslib.a(core-9bc28a7f9131c3bd.core.d226853cd57cf678-cgu.0.rcgu.o)
 *fill*         0x00000000400327b6        0x2 
 .rodata..Lanon.dabceac4c2e9a1f7e7ee9d5fdd3d8f81.224
                0x00000000400327b8       0x18 bin/obj/rslib.a(core-9bc28a7f9131c3bd.core.d226853cd57cf678-cgu.0.rcgu.o)
 .rodata..Lanon.dabceac4c2e9a1f7e7ee9d5fdd3d8f81.225
                0x00000000400327d0       0x18 bin/obj/rslib.a(core-9bc28a7f9131c3bd.core.d226853cd57cf678-cgu.0.rcgu.o)
 .rodata..Lanon.dabceac4c2e9a1f7e7ee9d5fdd3d8f81.226
                0x00000000400327e8        0xe bin/obj/rslib.a(core-9bc28a7f9131c3bd.core.d226853cd57cf678-cgu.0.rcgu.o)
 *fill*         0x00000000400327f6        0x2 
 .rodata..Lanon.dabceac4c2e9a1f7e7ee9d5fdd3d8f81.227
                0x00000000400327f8       0x10 bin/obj/rslib.a(core-9bc28a7f9131c3bd.core.d226853cd57cf678-cgu.0.rcgu.o)
 .rodata..Lanon.dabceac4c2e9a1f7e7ee9d5fdd3d8f81.229
                0x0000000040032808       0x12 bin/obj/rslib.a(core-9bc28a7f9131c3bd.core.d226853cd57cf678-cgu.0.rcgu.o)
 *fill*         0x000000004003281a        0x6 
 .rodata..Lanon.dabceac4c2e9a1f7e7ee9d5fdd3d8f81.230
                0x0000000040032820       0x20 bin/obj/rslib.a(core-9bc28a7f9131c3bd.core.d226853cd57cf678-cgu.0.rcgu.o)
 .rodata..Lanon.dabceac4c2e9a1f7e7ee9d5fdd3d8f81.231
                0x0000000040032840       0x3e bin/obj/rslib.a(core-9bc28a7f9131c3bd.core.d226853cd57cf678-cgu.0.rcgu.o)
 *fill*         0x000000004003287e        0x2 
 .rodata..Lanon.dabceac4c2e9a1f7e7ee9d5fdd3d8f81.233
                0x0000000040032880       0x20 bin/obj/rslib.a(core-9bc28a7f9131c3bd.core.d226853cd57cf678-cgu.0.rcgu.o)
 .rodata..Lanon.dabceac4c2e9a1f7e7ee9d5fdd3d8f81.234
                0x00000000400328a0       0x60 bin/obj/rslib.a(core-9bc28a7f9131c3bd.core.d226853cd57cf678-cgu.0.rcgu.o)
 .rodata..Lanon.dabceac4c2e9a1f7e7ee9d5fdd3d8f81.235
                0x0000000040032900       0x21 bin/obj/rslib.a(core-9bc28a7f9131c3bd.core.d226853cd57cf678-cgu.0.rcgu.o)
 *fill*         0x0000000040032921        0x7 
 .rodata..Lanon.dabceac4c2e9a1f7e7ee9d5fdd3d8f81.236
                0x0000000040032928       0x10 bin/obj/rslib.a(core-9bc28a7f9131c3bd.core.d226853cd57cf678-cgu.0.rcgu.o)
 .rodata..Lanon.dabceac4c2e9a1f7e7ee9d5fdd3d8f81.237
                0x0000000040032938       0x26 bin/obj/rslib.a(core-9bc28a7f9131c3bd.core.d226853cd57cf678-cgu.0.rcgu.o)
 .rodata..Lanon.dabceac4c2e9a1f7e7ee9d5fdd3d8f81.238
                0x000000004003295e       0x24 bin/obj/rslib.a(core-9bc28a7f9131c3bd.core.d226853cd57cf678-cgu.0.rcgu.o)
 *fill*         0x0000000040032982        0x6 
 .rodata..Lanon.dabceac4c2e9a1f7e7ee9d5fdd3d8f81.239
                0x0000000040032988       0x18 bin/obj/rslib.a(core-9bc28a7f9131c3bd.core.d226853cd57cf678-cgu.0.rcgu.o)
 .rodata..Lanon.dabceac4c2e9a1f7e7ee9d5fdd3d8f81.240
                0x00000000400329a0       0x20 bin/obj/rslib.a(core-9bc28a7f9131c3bd.core.d226853cd57cf678-cgu.0.rcgu.o)
 .rodata..Lanon.dabceac4c2e9a1f7e7ee9d5fdd3d8f81.241
                0x00000000400329c0       0x20 bin/obj/rslib.a(core-9bc28a7f9131c3bd.core.d226853cd57cf678-cgu.0.rcgu.o)
 .rodata..Lanon.dabceac4c2e9a1f7e7ee9d5fdd3d8f81.242
                0x00000000400329e0        0x2 bin/obj/rslib.a(core-9bc28a7f9131c3bd.core.d226853cd57cf678-cgu.0.rcgu.o)
 .rodata..Lanon.dabceac4c2e9a1f7e7ee9d5fdd3d8f81.243
                0x00000000400329e2        0x2 bin/obj/rslib.a(core-9bc28a7f9131c3bd.core.d226853cd57cf678-cgu.0.rcgu.o)
 .rodata..Lanon.dabceac4c2e9a1f7e7ee9d5fdd3d8f81.244
                0x00000000400329e4        0x7 bin/obj/rslib.a(core-9bc28a7f9131c3bd.core.d226853cd57cf678-cgu.0.rcgu.o)
 .rodata..Lanon.dabceac4c2e9a1f7e7ee9d5fdd3d8f81.246
                0x00000000400329eb       0x17 bin/obj/rslib.a(core-9bc28a7f9131c3bd.core.d226853cd57cf678-cgu.0.rcgu.o)
 .rodata..Lanon.dabceac4c2e9a1f7e7ee9d5fdd3d8f81.247
                0x0000000040032a02        0x9 bin/obj/rslib.a(core-9bc28a7f9131c3bd.core.d226853cd57cf678-cgu.0.rcgu.o)
 *fill*         0x0000000040032a0b        0x5 
 .rodata..Lanon.dabceac4c2e9a1f7e7ee9d5fdd3d8f81.248
                0x0000000040032a10       0x30 bin/obj/rslib.a(core-9bc28a7f9131c3bd.core.d226853cd57cf678-cgu.0.rcgu.o)
 .rodata..Lanon.dabceac4c2e9a1f7e7ee9d5fdd3d8f81.250
                0x0000000040032a40        0x9 bin/obj/rslib.a(core-9bc28a7f9131c3bd.core.d226853cd57cf678-cgu.0.rcgu.o)
 *fill*         0x0000000040032a49        0x7 
 .rodata..Lanon.dabceac4c2e9a1f7e7ee9d5fdd3d8f81.251
                0x0000000040032a50       0x40 bin/obj/rslib.a(core-9bc28a7f9131c3bd.core.d226853cd57cf678-cgu.0.rcgu.o)
 .rodata..Lanon.dabceac4c2e9a1f7e7ee9d5fdd3d8f81.252
                0x0000000040032a90       0x27 bin/obj/rslib.a(core-9bc28a7f9131c3bd.core.d226853cd57cf678-cgu.0.rcgu.o)
 *fill*         0x0000000040032ab7        0x1 
 .rodata..Lanon.dabceac4c2e9a1f7e7ee9d5fdd3d8f81.253
                0x0000000040032ab8       0x10 bin/obj/rslib.a(core-9bc28a7f9131c3bd.core.d226853cd57cf678-cgu.0.rcgu.o)
 .rodata..Lanon.dabceac4c2e9a1f7e7ee9d5fdd3d8f81.254
                0x0000000040032ac8        0x2 bin/obj/rslib.a(core-9bc28a7f9131c3bd.core.d226853cd57cf678-cgu.0.rcgu.o)
 *fill*         0x0000000040032aca        0x6 
 .rodata..Lanon.dabceac4c2e9a1f7e7ee9d5fdd3d8f81.255
                0x0000000040032ad0       0x20 bin/obj/rslib.a(core-9bc28a7f9131c3bd.core.d226853cd57cf678-cgu.0.rcgu.o)
 .rodata..Lanon.dabceac4c2e9a1f7e7ee9d5fdd3d8f81.256
                0x0000000040032af0       0x30 bin/obj/rslib.a(core-9bc28a7f9131c3bd.core.d226853cd57cf678-cgu.0.rcgu.o)
 .rodata..Lanon.dabceac4c2e9a1f7e7ee9d5fdd3d8f81.258
                0x0000000040032b20        0x3 bin/obj/rslib.a(core-9bc28a7f9131c3bd.core.d226853cd57cf678-cgu.0.rcgu.o)
 .rodata..Lanon.dabceac4c2e9a1f7e7ee9d5fdd3d8f81.259
                0x0000000040032b23        0x2 bin/obj/rslib.a(core-9bc28a7f9131c3bd.core.d226853cd57cf678-cgu.0.rcgu.o)
 .rodata..Lanon.dabceac4c2e9a1f7e7ee9d5fdd3d8f81.260
                0x0000000040032b25        0x3 bin/obj/rslib.a(core-9bc28a7f9131c3bd.core.d226853cd57cf678-cgu.0.rcgu.o)
 .rodata..Lanon.dabceac4c2e9a1f7e7ee9d5fdd3d8f81.261
                0x0000000040032b28        0x2 bin/obj/rslib.a(core-9bc28a7f9131c3bd.core.d226853cd57cf678-cgu.0.rcgu.o)
 .rodata..Lanon.dabceac4c2e9a1f7e7ee9d5fdd3d8f81.262
                0x0000000040032b2a        0x7 bin/obj/rslib.a(core-9bc28a7f9131c3bd.core.d226853cd57cf678-cgu.0.rcgu.o)
 .rodata..Lanon.dabceac4c2e9a1f7e7ee9d5fdd3d8f81.263
                0x0000000040032b31        0x6 bin/obj/rslib.a(core-9bc28a7f9131c3bd.core.d226853cd57cf678-cgu.0.rcgu.o)
 .rodata..Lanon.dabceac4c2e9a1f7e7ee9d5fdd3d8f81.264
                0x0000000040032b37        0x3 bin/obj/rslib.a(core-9bc28a7f9131c3bd.core.d226853cd57cf678-cgu.0.rcgu.o)
 .rodata..Lanon.dabceac4c2e9a1f7e7ee9d5fdd3d8f81.265
                0x0000000040032b3a        0x1 bin/obj/rslib.a(core-9bc28a7f9131c3bd.core.d226853cd57cf678-cgu.0.rcgu.o)
 .rodata..Lanon.dabceac4c2e9a1f7e7ee9d5fdd3d8f81.266
                0x0000000040032b3b        0x2 bin/obj/rslib.a(core-9bc28a7f9131c3bd.core.d226853cd57cf678-cgu.0.rcgu.o)
 .rodata..Lanon.dabceac4c2e9a1f7e7ee9d5fdd3d8f81.267
                0x0000000040032b3d        0x1 bin/obj/rslib.a(core-9bc28a7f9131c3bd.core.d226853cd57cf678-cgu.0.rcgu.o)
 .rodata..Lanon.dabceac4c2e9a1f7e7ee9d5fdd3d8f81.268
                0x0000000040032b3e        0x2 bin/obj/rslib.a(core-9bc28a7f9131c3bd.core.d226853cd57cf678-cgu.0.rcgu.o)
 .rodata..Lanon.dabceac4c2e9a1f7e7ee9d5fdd3d8f81.270
                0x0000000040032b40        0x5 bin/obj/rslib.a(core-9bc28a7f9131c3bd.core.d226853cd57cf678-cgu.0.rcgu.o)
 .rodata..Lanon.dabceac4c2e9a1f7e7ee9d5fdd3d8f81.271
                0x0000000040032b45        0x1 bin/obj/rslib.a(core-9bc28a7f9131c3bd.core.d226853cd57cf678-cgu.0.rcgu.o)
 .rodata..Lanon.dabceac4c2e9a1f7e7ee9d5fdd3d8f81.272
                0x0000000040032b46        0x1 bin/obj/rslib.a(core-9bc28a7f9131c3bd.core.d226853cd57cf678-cgu.0.rcgu.o)
 .rodata..Lanon.dabceac4c2e9a1f7e7ee9d5fdd3d8f81.273
                0x0000000040032b47        0x1 bin/obj/rslib.a(core-9bc28a7f9131c3bd.core.d226853cd57cf678-cgu.0.rcgu.o)
 .rodata..Lanon.dabceac4c2e9a1f7e7ee9d5fdd3d8f81.274
                0x0000000040032b48        0x3 bin/obj/rslib.a(core-9bc28a7f9131c3bd.core.d226853cd57cf678-cgu.0.rcgu.o)
 .rodata..Lanon.dabceac4c2e9a1f7e7ee9d5fdd3d8f81.275
                0x0000000040032b4b        0x5 bin/obj/rslib.a(core-9bc28a7f9131c3bd.core.d226853cd57cf678-cgu.0.rcgu.o)
 .rodata..Lanon.dabceac4c2e9a1f7e7ee9d5fdd3d8f81.276
                0x0000000040032b50        0x3 bin/obj/rslib.a(core-9bc28a7f9131c3bd.core.d226853cd57cf678-cgu.0.rcgu.o)
 .rodata..Lanon.dabceac4c2e9a1f7e7ee9d5fdd3d8f81.277
                0x0000000040032b53        0x5 bin/obj/rslib.a(core-9bc28a7f9131c3bd.core.d226853cd57cf678-cgu.0.rcgu.o)
 .rodata..Lanon.dabceac4c2e9a1f7e7ee9d5fdd3d8f81.278
                0x0000000040032b58        0x1 bin/obj/rslib.a(core-9bc28a7f9131c3bd.core.d226853cd57cf678-cgu.0.rcgu.o)
 .rodata..Lanon.dabceac4c2e9a1f7e7ee9d5fdd3d8f81.279
                0x0000000040032b59       0x46 bin/obj/rslib.a(core-9bc28a7f9131c3bd.core.d226853cd57cf678-cgu.0.rcgu.o)
 *fill*         0x0000000040032b9f        0x1 
 .rodata..Lanon.dabceac4c2e9a1f7e7ee9d5fdd3d8f81.280
                0x0000000040032ba0       0x10 bin/obj/rslib.a(core-9bc28a7f9131c3bd.core.d226853cd57cf678-cgu.0.rcgu.o)
 .rodata..Lanon.dabceac4c2e9a1f7e7ee9d5fdd3d8f81.282
                0x0000000040032bb0       0x18 bin/obj/rslib.a(core-9bc28a7f9131c3bd.core.d226853cd57cf678-cgu.0.rcgu.o)
 .rodata..Lanon.dabceac4c2e9a1f7e7ee9d5fdd3d8f81.283
                0x0000000040032bc8       0x2e bin/obj/rslib.a(core-9bc28a7f9131c3bd.core.d226853cd57cf678-cgu.0.rcgu.o)
 *fill*         0x0000000040032bf6        0x2 
 .rodata..Lanon.dabceac4c2e9a1f7e7ee9d5fdd3d8f81.284
                0x0000000040032bf8       0x10 bin/obj/rslib.a(core-9bc28a7f9131c3bd.core.d226853cd57cf678-cgu.0.rcgu.o)
 .rodata..Lanon.dabceac4c2e9a1f7e7ee9d5fdd3d8f81.285
                0x0000000040032c08       0x18 bin/obj/rslib.a(core-9bc28a7f9131c3bd.core.d226853cd57cf678-cgu.0.rcgu.o)
 .rodata..Lanon.dabceac4c2e9a1f7e7ee9d5fdd3d8f81.286
                0x0000000040032c20       0x2e bin/obj/rslib.a(core-9bc28a7f9131c3bd.core.d226853cd57cf678-cgu.0.rcgu.o)
 *fill*         0x0000000040032c4e        0x2 
 .rodata..Lanon.dabceac4c2e9a1f7e7ee9d5fdd3d8f81.287
                0x0000000040032c50       0x10 bin/obj/rslib.a(core-9bc28a7f9131c3bd.core.d226853cd57cf678-cgu.0.rcgu.o)
 .rodata..Lanon.dabceac4c2e9a1f7e7ee9d5fdd3d8f81.288
                0x0000000040032c60       0x18 bin/obj/rslib.a(core-9bc28a7f9131c3bd.core.d226853cd57cf678-cgu.0.rcgu.o)
 .rodata..Lanon.dabceac4c2e9a1f7e7ee9d5fdd3d8f81.289
                0x0000000040032c78       0x18 bin/obj/rslib.a(core-9bc28a7f9131c3bd.core.d226853cd57cf678-cgu.0.rcgu.o)
 .rodata..Lanon.dabceac4c2e9a1f7e7ee9d5fdd3d8f81.291
                0x0000000040032c90       0x18 bin/obj/rslib.a(core-9bc28a7f9131c3bd.core.d226853cd57cf678-cgu.0.rcgu.o)
 .rodata..Lanon.dabceac4c2e9a1f7e7ee9d5fdd3d8f81.292
                0x0000000040032ca8        0x2 bin/obj/rslib.a(core-9bc28a7f9131c3bd.core.d226853cd57cf678-cgu.0.rcgu.o)
 .rodata..Lanon.dabceac4c2e9a1f7e7ee9d5fdd3d8f81.293
                0x0000000040032caa        0x2 bin/obj/rslib.a(core-9bc28a7f9131c3bd.core.d226853cd57cf678-cgu.0.rcgu.o)
 .rodata..Lanon.dabceac4c2e9a1f7e7ee9d5fdd3d8f81.294
                0x0000000040032cac        0x2 bin/obj/rslib.a(core-9bc28a7f9131c3bd.core.d226853cd57cf678-cgu.0.rcgu.o)
 .rodata..Lanon.dabceac4c2e9a1f7e7ee9d5fdd3d8f81.295
                0x0000000040032cae       0xc8 bin/obj/rslib.a(core-9bc28a7f9131c3bd.core.d226853cd57cf678-cgu.0.rcgu.o)
 *fill*         0x0000000040032d76        0x2 
 .rodata..Lanon.dabceac4c2e9a1f7e7ee9d5fdd3d8f81.296
                0x0000000040032d78       0x18 bin/obj/rslib.a(core-9bc28a7f9131c3bd.core.d226853cd57cf678-cgu.0.rcgu.o)
 .rodata..Lanon.dabceac4c2e9a1f7e7ee9d5fdd3d8f81.297
                0x0000000040032d90       0x18 bin/obj/rslib.a(core-9bc28a7f9131c3bd.core.d226853cd57cf678-cgu.0.rcgu.o)
 .rodata..Lanon.dabceac4c2e9a1f7e7ee9d5fdd3d8f81.298
                0x0000000040032da8       0x18 bin/obj/rslib.a(core-9bc28a7f9131c3bd.core.d226853cd57cf678-cgu.0.rcgu.o)
 .rodata..Lanon.dabceac4c2e9a1f7e7ee9d5fdd3d8f81.299
                0x0000000040032dc0       0x18 bin/obj/rslib.a(core-9bc28a7f9131c3bd.core.d226853cd57cf678-cgu.0.rcgu.o)
 .rodata..Lanon.dabceac4c2e9a1f7e7ee9d5fdd3d8f81.300
                0x0000000040032dd8       0x30 bin/obj/rslib.a(core-9bc28a7f9131c3bd.core.d226853cd57cf678-cgu.0.rcgu.o)
 .rodata..Lanon.dabceac4c2e9a1f7e7ee9d5fdd3d8f81.301
                0x0000000040032e08       0x30 bin/obj/rslib.a(core-9bc28a7f9131c3bd.core.d226853cd57cf678-cgu.0.rcgu.o)
 .rodata..Lanon.dabceac4c2e9a1f7e7ee9d5fdd3d8f81.302
                0x0000000040032e38       0x30 bin/obj/rslib.a(core-9bc28a7f9131c3bd.core.d226853cd57cf678-cgu.0.rcgu.o)
 .rodata..Lanon.dabceac4c2e9a1f7e7ee9d5fdd3d8f81.303
                0x0000000040032e68       0x30 bin/obj/rslib.a(core-9bc28a7f9131c3bd.core.d226853cd57cf678-cgu.0.rcgu.o)
 .rodata..Lanon.dabceac4c2e9a1f7e7ee9d5fdd3d8f81.305
                0x0000000040032e98       0x40 bin/obj/rslib.a(core-9bc28a7f9131c3bd.core.d226853cd57cf678-cgu.0.rcgu.o)
 .rodata..Lanon.dabceac4c2e9a1f7e7ee9d5fdd3d8f81.306
                0x0000000040032ed8       0x18 bin/obj/rslib.a(core-9bc28a7f9131c3bd.core.d226853cd57cf678-cgu.0.rcgu.o)
 .rodata..Lanon.dabceac4c2e9a1f7e7ee9d5fdd3d8f81.307
                0x0000000040032ef0       0x20 bin/obj/rslib.a(core-9bc28a7f9131c3bd.core.d226853cd57cf678-cgu.0.rcgu.o)
 .rodata..Lanon.dabceac4c2e9a1f7e7ee9d5fdd3d8f81.308
                0x0000000040032f10       0x2d bin/obj/rslib.a(core-9bc28a7f9131c3bd.core.d226853cd57cf678-cgu.0.rcgu.o)
 .rodata..Lanon.dabceac4c2e9a1f7e7ee9d5fdd3d8f81.309
                0x0000000040032f3d        0x5 bin/obj/rslib.a(core-9bc28a7f9131c3bd.core.d226853cd57cf678-cgu.0.rcgu.o)
 *fill*         0x0000000040032f42        0x6 
 .rodata..Lanon.dabceac4c2e9a1f7e7ee9d5fdd3d8f81.311
                0x0000000040032f48       0x18 bin/obj/rslib.a(core-9bc28a7f9131c3bd.core.d226853cd57cf678-cgu.0.rcgu.o)
 .rodata..Lanon.dabceac4c2e9a1f7e7ee9d5fdd3d8f81.312
                0x0000000040032f60       0x18 bin/obj/rslib.a(core-9bc28a7f9131c3bd.core.d226853cd57cf678-cgu.0.rcgu.o)
 .rodata..Lanon.dabceac4c2e9a1f7e7ee9d5fdd3d8f81.314
                0x0000000040032f78       0x18 bin/obj/rslib.a(core-9bc28a7f9131c3bd.core.d226853cd57cf678-cgu.0.rcgu.o)
 .rodata..Lanon.dabceac4c2e9a1f7e7ee9d5fdd3d8f81.315
                0x0000000040032f90       0x18 bin/obj/rslib.a(core-9bc28a7f9131c3bd.core.d226853cd57cf678-cgu.0.rcgu.o)
 .rodata..Lanon.dabceac4c2e9a1f7e7ee9d5fdd3d8f81.316
                0x0000000040032fa8       0x4c bin/obj/rslib.a(core-9bc28a7f9131c3bd.core.d226853cd57cf678-cgu.0.rcgu.o)
 *fill*         0x0000000040032ff4        0x4 
 .rodata..Lanon.dabceac4c2e9a1f7e7ee9d5fdd3d8f81.317
                0x0000000040032ff8       0x10 bin/obj/rslib.a(core-9bc28a7f9131c3bd.core.d226853cd57cf678-cgu.0.rcgu.o)
 .rodata..Lanon.dabceac4c2e9a1f7e7ee9d5fdd3d8f81.319
                0x0000000040033008       0x18 bin/obj/rslib.a(core-9bc28a7f9131c3bd.core.d226853cd57cf678-cgu.0.rcgu.o)
 .rodata..Lanon.dabceac4c2e9a1f7e7ee9d5fdd3d8f81.320
                0x0000000040033020        0xb bin/obj/rslib.a(core-9bc28a7f9131c3bd.core.d226853cd57cf678-cgu.0.rcgu.o)
 .rodata..Lanon.dabceac4c2e9a1f7e7ee9d5fdd3d8f81.321
                0x000000004003302b       0x31 bin/obj/rslib.a(core-9bc28a7f9131c3bd.core.d226853cd57cf678-cgu.0.rcgu.o)
 *fill*         0x000000004003305c        0x4 
 .rodata..Lanon.dabceac4c2e9a1f7e7ee9d5fdd3d8f81.322
                0x0000000040033060       0x10 bin/obj/rslib.a(core-9bc28a7f9131c3bd.core.d226853cd57cf678-cgu.0.rcgu.o)
 .rodata..Lanon.dabceac4c2e9a1f7e7ee9d5fdd3d8f81.323
                0x0000000040033070       0x2c bin/obj/rslib.a(core-9bc28a7f9131c3bd.core.d226853cd57cf678-cgu.0.rcgu.o)
 *fill*         0x000000004003309c        0x4 
 .rodata..Lanon.dabceac4c2e9a1f7e7ee9d5fdd3d8f81.324
                0x00000000400330a0       0x10 bin/obj/rslib.a(core-9bc28a7f9131c3bd.core.d226853cd57cf678-cgu.0.rcgu.o)
 .rodata..Lanon.dabceac4c2e9a1f7e7ee9d5fdd3d8f81.326
                0x00000000400330b0       0x18 bin/obj/rslib.a(core-9bc28a7f9131c3bd.core.d226853cd57cf678-cgu.0.rcgu.o)
 .rodata..Lanon.dabceac4c2e9a1f7e7ee9d5fdd3d8f81.327
                0x00000000400330c8       0x18 bin/obj/rslib.a(core-9bc28a7f9131c3bd.core.d226853cd57cf678-cgu.0.rcgu.o)
 .rodata..Lanon.dabceac4c2e9a1f7e7ee9d5fdd3d8f81.328
                0x00000000400330e0       0x19 bin/obj/rslib.a(core-9bc28a7f9131c3bd.core.d226853cd57cf678-cgu.0.rcgu.o)
 .rodata..Lanon.dabceac4c2e9a1f7e7ee9d5fdd3d8f81.329
                0x00000000400330f9       0x1e bin/obj/rslib.a(core-9bc28a7f9131c3bd.core.d226853cd57cf678-cgu.0.rcgu.o)
 .rodata..Lanon.dabceac4c2e9a1f7e7ee9d5fdd3d8f81.330
                0x0000000040033117       0x1a bin/obj/rslib.a(core-9bc28a7f9131c3bd.core.d226853cd57cf678-cgu.0.rcgu.o)
 .rodata..Lanon.dabceac4c2e9a1f7e7ee9d5fdd3d8f81.331
                0x0000000040033131       0x12 bin/obj/rslib.a(core-9bc28a7f9131c3bd.core.d226853cd57cf678-cgu.0.rcgu.o)
 *fill*         0x0000000040033143        0x5 
 .rodata..Lanon.dabceac4c2e9a1f7e7ee9d5fdd3d8f81.332
                0x0000000040033148       0x20 bin/obj/rslib.a(core-9bc28a7f9131c3bd.core.d226853cd57cf678-cgu.0.rcgu.o)
 .rodata..Lanon.dabceac4c2e9a1f7e7ee9d5fdd3d8f81.333
                0x0000000040033168       0x2a bin/obj/rslib.a(core-9bc28a7f9131c3bd.core.d226853cd57cf678-cgu.0.rcgu.o)
 *fill*         0x0000000040033192        0x6 
 .rodata..Lanon.dabceac4c2e9a1f7e7ee9d5fdd3d8f81.334
                0x0000000040033198       0x10 bin/obj/rslib.a(core-9bc28a7f9131c3bd.core.d226853cd57cf678-cgu.0.rcgu.o)
 .rodata..Lanon.dabceac4c2e9a1f7e7ee9d5fdd3d8f81.335
                0x00000000400331a8       0x29 bin/obj/rslib.a(core-9bc28a7f9131c3bd.core.d226853cd57cf678-cgu.0.rcgu.o)
 .rodata..Lanon.dabceac4c2e9a1f7e7ee9d5fdd3d8f81.336
                0x00000000400331d1        0x6 bin/obj/rslib.a(core-9bc28a7f9131c3bd.core.d226853cd57cf678-cgu.0.rcgu.o)
 .rodata..Lanon.dabceac4c2e9a1f7e7ee9d5fdd3d8f81.337
                0x00000000400331d7        0xb bin/obj/rslib.a(core-9bc28a7f9131c3bd.core.d226853cd57cf678-cgu.0.rcgu.o)
 .rodata..Lanon.dabceac4c2e9a1f7e7ee9d5fdd3d8f81.338
                0x00000000400331e2       0x2a bin/obj/rslib.a(core-9bc28a7f9131c3bd.core.d226853cd57cf678-cgu.0.rcgu.o)
 *fill*         0x000000004003320c        0x4 
 .rodata..Lanon.dabceac4c2e9a1f7e7ee9d5fdd3d8f81.339
                0x0000000040033210       0x10 bin/obj/rslib.a(core-9bc28a7f9131c3bd.core.d226853cd57cf678-cgu.0.rcgu.o)
 .rodata..Lanon.dabceac4c2e9a1f7e7ee9d5fdd3d8f81.341
                0x0000000040033220      0x100 bin/obj/rslib.a(core-9bc28a7f9131c3bd.core.d226853cd57cf678-cgu.0.rcgu.o)
 .rodata..Lanon.dabceac4c2e9a1f7e7ee9d5fdd3d8f81.343
                0x0000000040033320       0x18 bin/obj/rslib.a(core-9bc28a7f9131c3bd.core.d226853cd57cf678-cgu.0.rcgu.o)
 .rodata..Lanon.dabceac4c2e9a1f7e7ee9d5fdd3d8f81.344
                0x0000000040033338       0x18 bin/obj/rslib.a(core-9bc28a7f9131c3bd.core.d226853cd57cf678-cgu.0.rcgu.o)
 .rodata..Lanon.dabceac4c2e9a1f7e7ee9d5fdd3d8f81.345
                0x0000000040033350       0x18 bin/obj/rslib.a(core-9bc28a7f9131c3bd.core.d226853cd57cf678-cgu.0.rcgu.o)
 .rodata..Lanon.dabceac4c2e9a1f7e7ee9d5fdd3d8f81.346
                0x0000000040033368       0x18 bin/obj/rslib.a(core-9bc28a7f9131c3bd.core.d226853cd57cf678-cgu.0.rcgu.o)
 .rodata..Lanon.dabceac4c2e9a1f7e7ee9d5fdd3d8f81.347
                0x0000000040033380       0x18 bin/obj/rslib.a(core-9bc28a7f9131c3bd.core.d226853cd57cf678-cgu.0.rcgu.o)
 .rodata..Lanon.dabceac4c2e9a1f7e7ee9d5fdd3d8f81.349
                0x0000000040033398       0x18 bin/obj/rslib.a(core-9bc28a7f9131c3bd.core.d226853cd57cf678-cgu.0.rcgu.o)
 .rodata..Lanon.dabceac4c2e9a1f7e7ee9d5fdd3d8f81.350
                0x00000000400333b0        0x2 bin/obj/rslib.a(core-9bc28a7f9131c3bd.core.d226853cd57cf678-cgu.0.rcgu.o)
 *fill*         0x00000000400333b2        0x6 
 .rodata..Lanon.dabceac4c2e9a1f7e7ee9d5fdd3d8f81.351
                0x00000000400333b8       0x10 bin/obj/rslib.a(core-9bc28a7f9131c3bd.core.d226853cd57cf678-cgu.0.rcgu.o)
 .rodata..Lanon.dabceac4c2e9a1f7e7ee9d5fdd3d8f81.352
                0x00000000400333c8       0x30 bin/obj/rslib.a(core-9bc28a7f9131c3bd.core.d226853cd57cf678-cgu.0.rcgu.o)
 .rodata..Lanon.dabceac4c2e9a1f7e7ee9d5fdd3d8f81.353
                0x00000000400333f8       0x18 bin/obj/rslib.a(core-9bc28a7f9131c3bd.core.d226853cd57cf678-cgu.0.rcgu.o)
 .rodata..Lanon.dabceac4c2e9a1f7e7ee9d5fdd3d8f81.355
                0x0000000040033410        0xa bin/obj/rslib.a(core-9bc28a7f9131c3bd.core.d226853cd57cf678-cgu.0.rcgu.o)
 *fill*         0x000000004003341a        0x6 
 .rodata..Lanon.dabceac4c2e9a1f7e7ee9d5fdd3d8f81.356
                0x0000000040033420       0x20 bin/obj/rslib.a(core-9bc28a7f9131c3bd.core.d226853cd57cf678-cgu.0.rcgu.o)
 .rodata..Lanon.dabceac4c2e9a1f7e7ee9d5fdd3d8f81.357
                0x0000000040033440        0x6 bin/obj/rslib.a(core-9bc28a7f9131c3bd.core.d226853cd57cf678-cgu.0.rcgu.o)
 .rodata..Lanon.dabceac4c2e9a1f7e7ee9d5fdd3d8f81.358
                0x0000000040033446       0x16 bin/obj/rslib.a(core-9bc28a7f9131c3bd.core.d226853cd57cf678-cgu.0.rcgu.o)
 *fill*         0x000000004003345c        0x4 
 .rodata..Lanon.dabceac4c2e9a1f7e7ee9d5fdd3d8f81.359
                0x0000000040033460       0x10 bin/obj/rslib.a(core-9bc28a7f9131c3bd.core.d226853cd57cf678-cgu.0.rcgu.o)
 .rodata..Lanon.dabceac4c2e9a1f7e7ee9d5fdd3d8f81.360
                0x0000000040033470        0x5 bin/obj/rslib.a(core-9bc28a7f9131c3bd.core.d226853cd57cf678-cgu.0.rcgu.o)
 .rodata..Lanon.dabceac4c2e9a1f7e7ee9d5fdd3d8f81.361
                0x0000000040033475        0xe bin/obj/rslib.a(core-9bc28a7f9131c3bd.core.d226853cd57cf678-cgu.0.rcgu.o)
 .rodata..Lanon.dabceac4c2e9a1f7e7ee9d5fdd3d8f81.364
                0x0000000040033483        0x1 bin/obj/rslib.a(core-9bc28a7f9131c3bd.core.d226853cd57cf678-cgu.0.rcgu.o)
 *fill*         0x0000000040033484        0x4 
 .rodata..Lanon.dabceac4c2e9a1f7e7ee9d5fdd3d8f81.365
                0x0000000040033488       0x40 bin/obj/rslib.a(core-9bc28a7f9131c3bd.core.d226853cd57cf678-cgu.0.rcgu.o)
 .rodata..Lanon.dabceac4c2e9a1f7e7ee9d5fdd3d8f81.366
                0x00000000400334c8        0xb bin/obj/rslib.a(core-9bc28a7f9131c3bd.core.d226853cd57cf678-cgu.0.rcgu.o)
 .rodata..Lanon.dabceac4c2e9a1f7e7ee9d5fdd3d8f81.367
                0x00000000400334d3       0x26 bin/obj/rslib.a(core-9bc28a7f9131c3bd.core.d226853cd57cf678-cgu.0.rcgu.o)
 .rodata..Lanon.dabceac4c2e9a1f7e7ee9d5fdd3d8f81.369
                0x00000000400334f9        0x6 bin/obj/rslib.a(core-9bc28a7f9131c3bd.core.d226853cd57cf678-cgu.0.rcgu.o)
 *fill*         0x00000000400334ff        0x1 
 .rodata..Lanon.dabceac4c2e9a1f7e7ee9d5fdd3d8f81.370
                0x0000000040033500       0x50 bin/obj/rslib.a(core-9bc28a7f9131c3bd.core.d226853cd57cf678-cgu.0.rcgu.o)
 .rodata..Lanon.dabceac4c2e9a1f7e7ee9d5fdd3d8f81.371
                0x0000000040033550       0x16 bin/obj/rslib.a(core-9bc28a7f9131c3bd.core.d226853cd57cf678-cgu.0.rcgu.o)
 *fill*         0x0000000040033566        0x2 
 .rodata..Lanon.dabceac4c2e9a1f7e7ee9d5fdd3d8f81.372
                0x0000000040033568       0x30 bin/obj/rslib.a(core-9bc28a7f9131c3bd.core.d226853cd57cf678-cgu.0.rcgu.o)
 .rodata..Lanon.dabceac4c2e9a1f7e7ee9d5fdd3d8f81.373
                0x0000000040033598       0x18 bin/obj/rslib.a(core-9bc28a7f9131c3bd.core.d226853cd57cf678-cgu.0.rcgu.o)
 .rodata..Lanon.dabceac4c2e9a1f7e7ee9d5fdd3d8f81.374
                0x00000000400335b0        0x2 bin/obj/rslib.a(core-9bc28a7f9131c3bd.core.d226853cd57cf678-cgu.0.rcgu.o)
 .rodata..Lanon.dabceac4c2e9a1f7e7ee9d5fdd3d8f81.375
                0x00000000400335b2        0x3 bin/obj/rslib.a(core-9bc28a7f9131c3bd.core.d226853cd57cf678-cgu.0.rcgu.o)
 .rodata..Lanon.dabceac4c2e9a1f7e7ee9d5fdd3d8f81.376
                0x00000000400335b5        0x2 bin/obj/rslib.a(core-9bc28a7f9131c3bd.core.d226853cd57cf678-cgu.0.rcgu.o)
 .rodata..Lanon.dabceac4c2e9a1f7e7ee9d5fdd3d8f81.377
                0x00000000400335b7        0x1 bin/obj/rslib.a(core-9bc28a7f9131c3bd.core.d226853cd57cf678-cgu.0.rcgu.o)
 .rodata..Lanon.dabceac4c2e9a1f7e7ee9d5fdd3d8f81.379
                0x00000000400335b8       0x18 bin/obj/rslib.a(core-9bc28a7f9131c3bd.core.d226853cd57cf678-cgu.0.rcgu.o)
 .rodata..Lanon.dabceac4c2e9a1f7e7ee9d5fdd3d8f81.381
                0x00000000400335d0       0x14 bin/obj/rslib.a(core-9bc28a7f9131c3bd.core.d226853cd57cf678-cgu.0.rcgu.o)
 *fill*         0x00000000400335e4        0x4 
 .rodata..Lanon.dabceac4c2e9a1f7e7ee9d5fdd3d8f81.382
                0x00000000400335e8       0x20 bin/obj/rslib.a(core-9bc28a7f9131c3bd.core.d226853cd57cf678-cgu.0.rcgu.o)
 .rodata..Lanon.dabceac4c2e9a1f7e7ee9d5fdd3d8f81.383
                0x0000000040033608       0x18 bin/obj/rslib.a(core-9bc28a7f9131c3bd.core.d226853cd57cf678-cgu.0.rcgu.o)
 .rodata..Lanon.dabceac4c2e9a1f7e7ee9d5fdd3d8f81.384
                0x0000000040033620       0x10 bin/obj/rslib.a(core-9bc28a7f9131c3bd.core.d226853cd57cf678-cgu.0.rcgu.o)
 .rodata..Lanon.dabceac4c2e9a1f7e7ee9d5fdd3d8f81.385
                0x0000000040033630       0x30 bin/obj/rslib.a(core-9bc28a7f9131c3bd.core.d226853cd57cf678-cgu.0.rcgu.o)
 .rodata..Lanon.dabceac4c2e9a1f7e7ee9d5fdd3d8f81.387
                0x0000000040033660       0x10 bin/obj/rslib.a(core-9bc28a7f9131c3bd.core.d226853cd57cf678-cgu.0.rcgu.o)
 .rodata..Lanon.dabceac4c2e9a1f7e7ee9d5fdd3d8f81.388
                0x0000000040033670       0x18 bin/obj/rslib.a(core-9bc28a7f9131c3bd.core.d226853cd57cf678-cgu.0.rcgu.o)
 .rodata..Lanon.dabceac4c2e9a1f7e7ee9d5fdd3d8f81.389
                0x0000000040033688       0x3b bin/obj/rslib.a(core-9bc28a7f9131c3bd.core.d226853cd57cf678-cgu.0.rcgu.o)
 .rodata..Lanon.dabceac4c2e9a1f7e7ee9d5fdd3d8f81.390
                0x00000000400336c3       0x48 bin/obj/rslib.a(core-9bc28a7f9131c3bd.core.d226853cd57cf678-cgu.0.rcgu.o)
 *fill*         0x000000004003370b        0x5 
 .rodata..Lanon.dabceac4c2e9a1f7e7ee9d5fdd3d8f81.392
                0x0000000040033710       0x18 bin/obj/rslib.a(core-9bc28a7f9131c3bd.core.d226853cd57cf678-cgu.0.rcgu.o)
 .rodata..Lanon.dabceac4c2e9a1f7e7ee9d5fdd3d8f81.393
                0x0000000040033728       0x18 bin/obj/rslib.a(core-9bc28a7f9131c3bd.core.d226853cd57cf678-cgu.0.rcgu.o)
 .rodata..Lanon.dabceac4c2e9a1f7e7ee9d5fdd3d8f81.394
                0x0000000040033740       0x58 bin/obj/rslib.a(core-9bc28a7f9131c3bd.core.d226853cd57cf678-cgu.0.rcgu.o)
 .rodata..Lanon.dabceac4c2e9a1f7e7ee9d5fdd3d8f81.395
                0x0000000040033798       0xd0 bin/obj/rslib.a(core-9bc28a7f9131c3bd.core.d226853cd57cf678-cgu.0.rcgu.o)
 .rodata..Lanon.dabceac4c2e9a1f7e7ee9d5fdd3d8f81.396
                0x0000000040033868      0x1e6 bin/obj/rslib.a(core-9bc28a7f9131c3bd.core.d226853cd57cf678-cgu.0.rcgu.o)
 .rodata..Lanon.dabceac4c2e9a1f7e7ee9d5fdd3d8f81.397
                0x0000000040033a4e       0x50 bin/obj/rslib.a(core-9bc28a7f9131c3bd.core.d226853cd57cf678-cgu.0.rcgu.o)
 .rodata..Lanon.dabceac4c2e9a1f7e7ee9d5fdd3d8f81.398
                0x0000000040033a9e      0x122 bin/obj/rslib.a(core-9bc28a7f9131c3bd.core.d226853cd57cf678-cgu.0.rcgu.o)
 .rodata..Lanon.dabceac4c2e9a1f7e7ee9d5fdd3d8f81.399
                0x0000000040033bc0      0x129 bin/obj/rslib.a(core-9bc28a7f9131c3bd.core.d226853cd57cf678-cgu.0.rcgu.o)
 *fill*         0x0000000040033ce9        0x7 
 .rodata..Lanon.dabceac4c2e9a1f7e7ee9d5fdd3d8f81.401
                0x0000000040033cf0       0x18 bin/obj/rslib.a(core-9bc28a7f9131c3bd.core.d226853cd57cf678-cgu.0.rcgu.o)
 .rodata..Lanon.dabceac4c2e9a1f7e7ee9d5fdd3d8f81.402
                0x0000000040033d08       0x18 bin/obj/rslib.a(core-9bc28a7f9131c3bd.core.d226853cd57cf678-cgu.0.rcgu.o)
 .rodata..Lanon.dabceac4c2e9a1f7e7ee9d5fdd3d8f81.403
                0x0000000040033d20       0x18 bin/obj/rslib.a(core-9bc28a7f9131c3bd.core.d226853cd57cf678-cgu.0.rcgu.o)
 .rodata..Lanon.dabceac4c2e9a1f7e7ee9d5fdd3d8f81.404
                0x0000000040033d38        0x7 bin/obj/rslib.a(core-9bc28a7f9131c3bd.core.d226853cd57cf678-cgu.0.rcgu.o)
 *fill*         0x0000000040033d3f        0x1 
 .rodata..Lanon.dabceac4c2e9a1f7e7ee9d5fdd3d8f81.405
                0x0000000040033d40       0x20 bin/obj/rslib.a(core-9bc28a7f9131c3bd.core.d226853cd57cf678-cgu.0.rcgu.o)
 .rodata..Lanon.dabceac4c2e9a1f7e7ee9d5fdd3d8f81.406
                0x0000000040033d60        0x5 bin/obj/rslib.a(core-9bc28a7f9131c3bd.core.d226853cd57cf678-cgu.0.rcgu.o)
 .rodata..Lanon.dabceac4c2e9a1f7e7ee9d5fdd3d8f81.407
                0x0000000040033d65        0x5 bin/obj/rslib.a(core-9bc28a7f9131c3bd.core.d226853cd57cf678-cgu.0.rcgu.o)
 *fill*         0x0000000040033d6a        0x6 
 .rodata..Lanon.dabceac4c2e9a1f7e7ee9d5fdd3d8f81.408
                0x0000000040033d70       0x20 bin/obj/rslib.a(core-9bc28a7f9131c3bd.core.d226853cd57cf678-cgu.0.rcgu.o)
 .rodata..Lanon.dabceac4c2e9a1f7e7ee9d5fdd3d8f81.410
                0x0000000040033d90       0x20 bin/obj/rslib.a(core-9bc28a7f9131c3bd.core.d226853cd57cf678-cgu.0.rcgu.o)
 .rodata..Lanon.dabceac4c2e9a1f7e7ee9d5fdd3d8f81.411
                0x0000000040033db0        0x6 bin/obj/rslib.a(core-9bc28a7f9131c3bd.core.d226853cd57cf678-cgu.0.rcgu.o)
 .rodata..Lanon.dabceac4c2e9a1f7e7ee9d5fdd3d8f81.412
                0x0000000040033db6        0xa bin/obj/rslib.a(core-9bc28a7f9131c3bd.core.d226853cd57cf678-cgu.0.rcgu.o)
 .rodata..Lanon.dabceac4c2e9a1f7e7ee9d5fdd3d8f81.413
                0x0000000040033dc0       0x2d bin/obj/rslib.a(core-9bc28a7f9131c3bd.core.d226853cd57cf678-cgu.0.rcgu.o)
 .rodata..Lanon.dabceac4c2e9a1f7e7ee9d5fdd3d8f81.414
                0x0000000040033ded       0x18 bin/obj/rslib.a(core-9bc28a7f9131c3bd.core.d226853cd57cf678-cgu.0.rcgu.o)
 .rodata..Lanon.dabceac4c2e9a1f7e7ee9d5fdd3d8f81.415
                0x0000000040033e05      0x100 bin/obj/rslib.a(core-9bc28a7f9131c3bd.core.d226853cd57cf678-cgu.0.rcgu.o)
 .rodata..Lanon.dabceac4c2e9a1f7e7ee9d5fdd3d8f81.416
                0x0000000040033f05       0x24 bin/obj/rslib.a(core-9bc28a7f9131c3bd.core.d226853cd57cf678-cgu.0.rcgu.o)
 *fill*         0x0000000040033f29        0x7 
 .rodata..Lanon.dabceac4c2e9a1f7e7ee9d5fdd3d8f81.418
                0x0000000040033f30       0x20 bin/obj/rslib.a(core-9bc28a7f9131c3bd.core.d226853cd57cf678-cgu.0.rcgu.o)
 .rodata..Lanon.dabceac4c2e9a1f7e7ee9d5fdd3d8f81.420
                0x0000000040033f50       0x18 bin/obj/rslib.a(core-9bc28a7f9131c3bd.core.d226853cd57cf678-cgu.0.rcgu.o)
 .rodata..Lanon.dabceac4c2e9a1f7e7ee9d5fdd3d8f81.421
                0x0000000040033f68       0x18 bin/obj/rslib.a(core-9bc28a7f9131c3bd.core.d226853cd57cf678-cgu.0.rcgu.o)
 .rodata..Lanon.dabceac4c2e9a1f7e7ee9d5fdd3d8f81.422
                0x0000000040033f80       0x1a bin/obj/rslib.a(core-9bc28a7f9131c3bd.core.d226853cd57cf678-cgu.0.rcgu.o)
 .rodata..Lanon.dabceac4c2e9a1f7e7ee9d5fdd3d8f81.423
                0x0000000040033f9a       0x1d bin/obj/rslib.a(core-9bc28a7f9131c3bd.core.d226853cd57cf678-cgu.0.rcgu.o)
 .rodata..Lanon.dabceac4c2e9a1f7e7ee9d5fdd3d8f81.424
                0x0000000040033fb7       0x1b bin/obj/rslib.a(core-9bc28a7f9131c3bd.core.d226853cd57cf678-cgu.0.rcgu.o)
 .rodata..Lanon.dabceac4c2e9a1f7e7ee9d5fdd3d8f81.425
                0x0000000040033fd2       0x1e bin/obj/rslib.a(core-9bc28a7f9131c3bd.core.d226853cd57cf678-cgu.0.rcgu.o)
 .rodata..Lanon.dabceac4c2e9a1f7e7ee9d5fdd3d8f81.426
                0x0000000040033ff0       0x30 bin/obj/rslib.a(core-9bc28a7f9131c3bd.core.d226853cd57cf678-cgu.0.rcgu.o)
 .rodata..Lanon.dabceac4c2e9a1f7e7ee9d5fdd3d8f81.427
                0x0000000040034020        0x1 bin/obj/rslib.a(core-9bc28a7f9131c3bd.core.d226853cd57cf678-cgu.0.rcgu.o)
 *fill*         0x0000000040034021        0x7 
 .rodata..Lanon.dabceac4c2e9a1f7e7ee9d5fdd3d8f81.428
                0x0000000040034028       0x10 bin/obj/rslib.a(core-9bc28a7f9131c3bd.core.d226853cd57cf678-cgu.0.rcgu.o)
 .rodata..Lanon.dabceac4c2e9a1f7e7ee9d5fdd3d8f81.429
                0x0000000040034038       0x30 bin/obj/rslib.a(core-9bc28a7f9131c3bd.core.d226853cd57cf678-cgu.0.rcgu.o)
 .rodata..Lanon.dabceac4c2e9a1f7e7ee9d5fdd3d8f81.430
                0x0000000040034068       0x18 bin/obj/rslib.a(core-9bc28a7f9131c3bd.core.d226853cd57cf678-cgu.0.rcgu.o)
 .rodata..Lanon.dabceac4c2e9a1f7e7ee9d5fdd3d8f81.431
                0x0000000040034080       0x1c bin/obj/rslib.a(core-9bc28a7f9131c3bd.core.d226853cd57cf678-cgu.0.rcgu.o)
 *fill*         0x000000004003409c        0x4 
 .rodata._ZN4core3num7dec2flt5table17POWER_OF_FIVE_12817h1d94910c3e79ad1eE
                0x00000000400340a0     0x28b0 bin/obj/rslib.a(core-9bc28a7f9131c3bd.core.d226853cd57cf678-cgu.0.rcgu.o)
 .rodata..Lanon.dabceac4c2e9a1f7e7ee9d5fdd3d8f81.432
                0x0000000040036950       0x40 bin/obj/rslib.a(core-9bc28a7f9131c3bd.core.d226853cd57cf678-cgu.0.rcgu.o)
 .rodata..Lanon.dabceac4c2e9a1f7e7ee9d5fdd3d8f81.433
                0x0000000040036990       0x10 bin/obj/rslib.a(core-9bc28a7f9131c3bd.core.d226853cd57cf678-cgu.0.rcgu.o)
 .rodata..Lanon.dabceac4c2e9a1f7e7ee9d5fdd3d8f81.434
                0x00000000400369a0       0x18 bin/obj/rslib.a(core-9bc28a7f9131c3bd.core.d226853cd57cf678-cgu.0.rcgu.o)
 .rodata..Lanon.dabceac4c2e9a1f7e7ee9d5fdd3d8f81.435
                0x00000000400369b8       0x1c bin/obj/rslib.a(core-9bc28a7f9131c3bd.core.d226853cd57cf678-cgu.0.rcgu.o)
 .rodata..Lanon.dabceac4c2e9a1f7e7ee9d5fdd3d8f81.436
                0x00000000400369d4       0x18 bin/obj/rslib.a(core-9bc28a7f9131c3bd.core.d226853cd57cf678-cgu.0.rcgu.o)
 .rodata..Lanon.dabceac4c2e9a1f7e7ee9d5fdd3d8f81.437
                0x00000000400369ec       0x12 bin/obj/rslib.a(core-9bc28a7f9131c3bd.core.d226853cd57cf678-cgu.0.rcgu.o)
 .rodata..Lanon.dabceac4c2e9a1f7e7ee9d5fdd3d8f81.438
                0x00000000400369fe       0x13 bin/obj/rslib.a(core-9bc28a7f9131c3bd.core.d226853cd57cf678-cgu.0.rcgu.o)
 .rodata..Lanon.dabceac4c2e9a1f7e7ee9d5fdd3d8f81.439
                0x0000000040036a11       0x15 bin/obj/rslib.a(core-9bc28a7f9131c3bd.core.d226853cd57cf678-cgu.0.rcgu.o)
 *fill*         0x0000000040036a26        0x2 
 .rodata..Lanon.dabceac4c2e9a1f7e7ee9d5fdd3d8f81.440
                0x0000000040036a28       0x30 bin/obj/rslib.a(core-9bc28a7f9131c3bd.core.d226853cd57cf678-cgu.0.rcgu.o)
 .rodata..Lanon.dabceac4c2e9a1f7e7ee9d5fdd3d8f81.441
                0x0000000040036a58       0x90 bin/obj/rslib.a(core-9bc28a7f9131c3bd.core.d226853cd57cf678-cgu.0.rcgu.o)
 .rodata..Lanon.dabceac4c2e9a1f7e7ee9d5fdd3d8f81.442
                0x0000000040036ae8       0x13 bin/obj/rslib.a(core-9bc28a7f9131c3bd.core.d226853cd57cf678-cgu.0.rcgu.o)
 *fill*         0x0000000040036afb        0x5 
 .rodata..Lanon.dabceac4c2e9a1f7e7ee9d5fdd3d8f81.443
                0x0000000040036b00       0x30 bin/obj/rslib.a(core-9bc28a7f9131c3bd.core.d226853cd57cf678-cgu.0.rcgu.o)
 .rodata..Lanon.dabceac4c2e9a1f7e7ee9d5fdd3d8f81.444
                0x0000000040036b30       0x19 bin/obj/rslib.a(core-9bc28a7f9131c3bd.core.d226853cd57cf678-cgu.0.rcgu.o)
 *fill*         0x0000000040036b49        0x7 
 .rodata..Lanon.dabceac4c2e9a1f7e7ee9d5fdd3d8f81.445
                0x0000000040036b50       0x10 bin/obj/rslib.a(core-9bc28a7f9131c3bd.core.d226853cd57cf678-cgu.0.rcgu.o)
 .rodata..Lanon.dabceac4c2e9a1f7e7ee9d5fdd3d8f81.446
                0x0000000040036b60       0x39 bin/obj/rslib.a(core-9bc28a7f9131c3bd.core.d226853cd57cf678-cgu.0.rcgu.o)
 *fill*         0x0000000040036b99        0x7 
 .rodata..Lanon.dabceac4c2e9a1f7e7ee9d5fdd3d8f81.447
                0x0000000040036ba0       0x10 bin/obj/rslib.a(core-9bc28a7f9131c3bd.core.d226853cd57cf678-cgu.0.rcgu.o)
 .rodata..Lanon.dabceac4c2e9a1f7e7ee9d5fdd3d8f81.448
                0x0000000040036bb0       0x22 bin/obj/rslib.a(core-9bc28a7f9131c3bd.core.d226853cd57cf678-cgu.0.rcgu.o)
 *fill*         0x0000000040036bd2        0x6 
 .rodata..Lanon.dabceac4c2e9a1f7e7ee9d5fdd3d8f81.449
                0x0000000040036bd8       0x10 bin/obj/rslib.a(core-9bc28a7f9131c3bd.core.d226853cd57cf678-cgu.0.rcgu.o)
 .rodata..Lanon.dabceac4c2e9a1f7e7ee9d5fdd3d8f81.450
                0x0000000040036be8       0x23 bin/obj/rslib.a(core-9bc28a7f9131c3bd.core.d226853cd57cf678-cgu.0.rcgu.o)
 *fill*         0x0000000040036c0b        0x5 
 .rodata..Lanon.dabceac4c2e9a1f7e7ee9d5fdd3d8f81.451
                0x0000000040036c10       0x10 bin/obj/rslib.a(core-9bc28a7f9131c3bd.core.d226853cd57cf678-cgu.0.rcgu.o)
 .rodata..Lanon.dabceac4c2e9a1f7e7ee9d5fdd3d8f81.452
                0x0000000040036c20       0x27 bin/obj/rslib.a(core-9bc28a7f9131c3bd.core.d226853cd57cf678-cgu.0.rcgu.o)
 *fill*         0x0000000040036c47        0x1 
 .rodata..Lanon.dabceac4c2e9a1f7e7ee9d5fdd3d8f81.453
                0x0000000040036c48       0x10 bin/obj/rslib.a(core-9bc28a7f9131c3bd.core.d226853cd57cf678-cgu.0.rcgu.o)
 .rodata..Lanon.dabceac4c2e9a1f7e7ee9d5fdd3d8f81.454
                0x0000000040036c58       0x3b bin/obj/rslib.a(core-9bc28a7f9131c3bd.core.d226853cd57cf678-cgu.0.rcgu.o)
 *fill*         0x0000000040036c93        0x5 
 .rodata..Lanon.dabceac4c2e9a1f7e7ee9d5fdd3d8f81.455
                0x0000000040036c98       0x10 bin/obj/rslib.a(core-9bc28a7f9131c3bd.core.d226853cd57cf678-cgu.0.rcgu.o)
 .rodata..Lanon.dabceac4c2e9a1f7e7ee9d5fdd3d8f81.456
                0x0000000040036ca8       0x21 bin/obj/rslib.a(core-9bc28a7f9131c3bd.core.d226853cd57cf678-cgu.0.rcgu.o)
 *fill*         0x0000000040036cc9        0x7 
 .rodata..Lanon.dabceac4c2e9a1f7e7ee9d5fdd3d8f81.457
                0x0000000040036cd0       0x10 bin/obj/rslib.a(core-9bc28a7f9131c3bd.core.d226853cd57cf678-cgu.0.rcgu.o)
 .rodata..Lanon.dabceac4c2e9a1f7e7ee9d5fdd3d8f81.458
                0x0000000040036ce0       0x22 bin/obj/rslib.a(core-9bc28a7f9131c3bd.core.d226853cd57cf678-cgu.0.rcgu.o)
 *fill*         0x0000000040036d02        0x6 
 .rodata..Lanon.dabceac4c2e9a1f7e7ee9d5fdd3d8f81.459
                0x0000000040036d08       0x10 bin/obj/rslib.a(core-9bc28a7f9131c3bd.core.d226853cd57cf678-cgu.0.rcgu.o)
 .rodata..Lanon.dabceac4c2e9a1f7e7ee9d5fdd3d8f81.460
                0x0000000040036d18       0x26 bin/obj/rslib.a(core-9bc28a7f9131c3bd.core.d226853cd57cf678-cgu.0.rcgu.o)
 *fill*         0x0000000040036d3e        0x2 
 .rodata..Lanon.dabceac4c2e9a1f7e7ee9d5fdd3d8f81.461
                0x0000000040036d40       0x10 bin/obj/rslib.a(core-9bc28a7f9131c3bd.core.d226853cd57cf678-cgu.0.rcgu.o)
 .rodata..Lanon.dabceac4c2e9a1f7e7ee9d5fdd3d8f81.462
                0x0000000040036d50       0x3a bin/obj/rslib.a(core-9bc28a7f9131c3bd.core.d226853cd57cf678-cgu.0.rcgu.o)
 *fill*         0x0000000040036d8a        0x6 
 .rodata..Lanon.dabceac4c2e9a1f7e7ee9d5fdd3d8f81.463
                0x0000000040036d90       0x10 bin/obj/rslib.a(core-9bc28a7f9131c3bd.core.d226853cd57cf678-cgu.0.rcgu.o)
 .rodata..Lanon.dabceac4c2e9a1f7e7ee9d5fdd3d8f81.464
                0x0000000040036da0       0x22 bin/obj/rslib.a(core-9bc28a7f9131c3bd.core.d226853cd57cf678-cgu.0.rcgu.o)
 *fill*         0x0000000040036dc2        0x6 
 .rodata..Lanon.dabceac4c2e9a1f7e7ee9d5fdd3d8f81.465
                0x0000000040036dc8       0x10 bin/obj/rslib.a(core-9bc28a7f9131c3bd.core.d226853cd57cf678-cgu.0.rcgu.o)
 .rodata..Lanon.dabceac4c2e9a1f7e7ee9d5fdd3d8f81.466
                0x0000000040036dd8       0x23 bin/obj/rslib.a(core-9bc28a7f9131c3bd.core.d226853cd57cf678-cgu.0.rcgu.o)
 *fill*         0x0000000040036dfb        0x5 
 .rodata..Lanon.dabceac4c2e9a1f7e7ee9d5fdd3d8f81.467
                0x0000000040036e00       0x10 bin/obj/rslib.a(core-9bc28a7f9131c3bd.core.d226853cd57cf678-cgu.0.rcgu.o)
 .rodata..Lanon.dabceac4c2e9a1f7e7ee9d5fdd3d8f81.468
                0x0000000040036e10       0x27 bin/obj/rslib.a(core-9bc28a7f9131c3bd.core.d226853cd57cf678-cgu.0.rcgu.o)
 *fill*         0x0000000040036e37        0x1 
 .rodata..Lanon.dabceac4c2e9a1f7e7ee9d5fdd3d8f81.469
                0x0000000040036e38       0x10 bin/obj/rslib.a(core-9bc28a7f9131c3bd.core.d226853cd57cf678-cgu.0.rcgu.o)
 .rodata..Lanon.dabceac4c2e9a1f7e7ee9d5fdd3d8f81.470
                0x0000000040036e48       0x21 bin/obj/rslib.a(core-9bc28a7f9131c3bd.core.d226853cd57cf678-cgu.0.rcgu.o)
 *fill*         0x0000000040036e69        0x7 
 .rodata..Lanon.dabceac4c2e9a1f7e7ee9d5fdd3d8f81.471
                0x0000000040036e70       0x10 bin/obj/rslib.a(core-9bc28a7f9131c3bd.core.d226853cd57cf678-cgu.0.rcgu.o)
 .rodata..Lanon.dabceac4c2e9a1f7e7ee9d5fdd3d8f81.472
                0x0000000040036e80       0x2c bin/obj/rslib.a(core-9bc28a7f9131c3bd.core.d226853cd57cf678-cgu.0.rcgu.o)
 *fill*         0x0000000040036eac        0x4 
 .rodata..Lanon.dabceac4c2e9a1f7e7ee9d5fdd3d8f81.473
                0x0000000040036eb0       0x10 bin/obj/rslib.a(core-9bc28a7f9131c3bd.core.d226853cd57cf678-cgu.0.rcgu.o)
 .rodata..Lanon.dabceac4c2e9a1f7e7ee9d5fdd3d8f81.474
                0x0000000040036ec0        0x1 bin/obj/rslib.a(core-9bc28a7f9131c3bd.core.d226853cd57cf678-cgu.0.rcgu.o)
 .rodata..Lanon.dabceac4c2e9a1f7e7ee9d5fdd3d8f81.475
                0x0000000040036ec1       0x1c bin/obj/rslib.a(core-9bc28a7f9131c3bd.core.d226853cd57cf678-cgu.0.rcgu.o)
 *fill*         0x0000000040036edd        0x3 
 .rodata..Lanon.dabceac4c2e9a1f7e7ee9d5fdd3d8f81.476
                0x0000000040036ee0       0x20 bin/obj/rslib.a(core-9bc28a7f9131c3bd.core.d226853cd57cf678-cgu.0.rcgu.o)
 .rodata..Lanon.dabceac4c2e9a1f7e7ee9d5fdd3d8f81.477
                0x0000000040036f00       0x18 bin/obj/rslib.a(core-9bc28a7f9131c3bd.core.d226853cd57cf678-cgu.0.rcgu.o)
 .rodata..Lanon.dabceac4c2e9a1f7e7ee9d5fdd3d8f81.478
                0x0000000040036f18        0x1 bin/obj/rslib.a(core-9bc28a7f9131c3bd.core.d226853cd57cf678-cgu.0.rcgu.o)
 *fill*         0x0000000040036f19        0x7 
 .rodata..Lanon.dabceac4c2e9a1f7e7ee9d5fdd3d8f81.479
                0x0000000040036f20       0x18 bin/obj/rslib.a(core-9bc28a7f9131c3bd.core.d226853cd57cf678-cgu.0.rcgu.o)
 .rodata..Lanon.dabceac4c2e9a1f7e7ee9d5fdd3d8f81.480
                0x0000000040036f38        0x1 bin/obj/rslib.a(core-9bc28a7f9131c3bd.core.d226853cd57cf678-cgu.0.rcgu.o)
 *fill*         0x0000000040036f39        0x7 
 .rodata..Lanon.dabceac4c2e9a1f7e7ee9d5fdd3d8f81.481
                0x0000000040036f40       0x18 bin/obj/rslib.a(core-9bc28a7f9131c3bd.core.d226853cd57cf678-cgu.0.rcgu.o)
 .rodata..Lanon.dabceac4c2e9a1f7e7ee9d5fdd3d8f81.482
                0x0000000040036f58       0x18 bin/obj/rslib.a(core-9bc28a7f9131c3bd.core.d226853cd57cf678-cgu.0.rcgu.o)
 .rodata..Lanon.dabceac4c2e9a1f7e7ee9d5fdd3d8f81.483
                0x0000000040036f70       0x18 bin/obj/rslib.a(core-9bc28a7f9131c3bd.core.d226853cd57cf678-cgu.0.rcgu.o)
 .rodata..Lanon.dabceac4c2e9a1f7e7ee9d5fdd3d8f81.484
                0x0000000040036f88       0x18 bin/obj/rslib.a(core-9bc28a7f9131c3bd.core.d226853cd57cf678-cgu.0.rcgu.o)
 .rodata..Lanon.dabceac4c2e9a1f7e7ee9d5fdd3d8f81.485
                0x0000000040036fa0        0x5 bin/obj/rslib.a(core-9bc28a7f9131c3bd.core.d226853cd57cf678-cgu.0.rcgu.o)
 .rodata..Lanon.dabceac4c2e9a1f7e7ee9d5fdd3d8f81.486
                0x0000000040036fa5       0x12 bin/obj/rslib.a(core-9bc28a7f9131c3bd.core.d226853cd57cf678-cgu.0.rcgu.o)
 .rodata..Lanon.dabceac4c2e9a1f7e7ee9d5fdd3d8f81.487
                0x0000000040036fb7       0x22 bin/obj/rslib.a(core-9bc28a7f9131c3bd.core.d226853cd57cf678-cgu.0.rcgu.o)
 *fill*         0x0000000040036fd9        0x7 
 .rodata..Lanon.dabceac4c2e9a1f7e7ee9d5fdd3d8f81.488
                0x0000000040036fe0       0x20 bin/obj/rslib.a(core-9bc28a7f9131c3bd.core.d226853cd57cf678-cgu.0.rcgu.o)
 .rodata..Lanon.dabceac4c2e9a1f7e7ee9d5fdd3d8f81.490
                0x0000000040037000       0x20 bin/obj/rslib.a(core-9bc28a7f9131c3bd.core.d226853cd57cf678-cgu.0.rcgu.o)
 .rodata..Lanon.dabceac4c2e9a1f7e7ee9d5fdd3d8f81.491
                0x0000000040037020       0x16 bin/obj/rslib.a(core-9bc28a7f9131c3bd.core.d226853cd57cf678-cgu.0.rcgu.o)
 .rodata..Lanon.dabceac4c2e9a1f7e7ee9d5fdd3d8f81.492
                0x0000000040037036        0xd bin/obj/rslib.a(core-9bc28a7f9131c3bd.core.d226853cd57cf678-cgu.0.rcgu.o)
 *fill*         0x0000000040037043        0x5 
 .rodata..Lanon.dabceac4c2e9a1f7e7ee9d5fdd3d8f81.493
                0x0000000040037048       0x20 bin/obj/rslib.a(core-9bc28a7f9131c3bd.core.d226853cd57cf678-cgu.0.rcgu.o)
 .rodata..Lanon.dabceac4c2e9a1f7e7ee9d5fdd3d8f81.494
                0x0000000040037068       0x26 bin/obj/rslib.a(core-9bc28a7f9131c3bd.core.d226853cd57cf678-cgu.0.rcgu.o)
 .rodata..Lanon.dabceac4c2e9a1f7e7ee9d5fdd3d8f81.495
                0x000000004003708e       0x2b bin/obj/rslib.a(core-9bc28a7f9131c3bd.core.d226853cd57cf678-cgu.0.rcgu.o)
 *fill*         0x00000000400370b9        0x7 
 .rodata..Lanon.dabceac4c2e9a1f7e7ee9d5fdd3d8f81.496
                0x00000000400370c0       0x30 bin/obj/rslib.a(core-9bc28a7f9131c3bd.core.d226853cd57cf678-cgu.0.rcgu.o)
 .rodata._ZN4core7unicode12unicode_data10alphabetic17SHORT_OFFSET_RUNS17h2e4440fae821c16fE
                0x00000000400370f0       0xd4 bin/obj/rslib.a(core-9bc28a7f9131c3bd.core.d226853cd57cf678-cgu.0.rcgu.o)
 .rodata._ZN4core7unicode12unicode_data14case_ignorable17SHORT_OFFSET_RUNS17h44b69da01950d81eE
                0x00000000400371c4       0x94 bin/obj/rslib.a(core-9bc28a7f9131c3bd.core.d226853cd57cf678-cgu.0.rcgu.o)
 .rodata._ZN4core7unicode12unicode_data5cased17SHORT_OFFSET_RUNS17h4607e326b4f9cc2fE
                0x0000000040037258       0x58 bin/obj/rslib.a(core-9bc28a7f9131c3bd.core.d226853cd57cf678-cgu.0.rcgu.o)
 .rodata._ZN4core7unicode12unicode_data15grapheme_extend17SHORT_OFFSET_RUNS17ha72229151b01049dE
                0x00000000400372b0       0x88 bin/obj/rslib.a(core-9bc28a7f9131c3bd.core.d226853cd57cf678-cgu.0.rcgu.o)
 .rodata._ZN4core7unicode12unicode_data9lowercase19BITSET_INDEX_CHUNKS17h5ba84ae76277ac0dE
                0x0000000040037338      0x140 bin/obj/rslib.a(core-9bc28a7f9131c3bd.core.d226853cd57cf678-cgu.0.rcgu.o)
                0x0000000040037338                core::unicode::unicode_data::lowercase::BITSET_INDEX_CHUNKS
 .rodata._ZN4core7unicode12unicode_data9lowercase16BITSET_CANONICAL17h648ecbac1bb362d5E
                0x0000000040037478      0x1c0 bin/obj/rslib.a(core-9bc28a7f9131c3bd.core.d226853cd57cf678-cgu.0.rcgu.o)
                0x0000000040037478                core::unicode::unicode_data::lowercase::BITSET_CANONICAL
 .rodata._ZN4core7unicode12unicode_data9lowercase14BITSET_MAPPING17hb2803bc688060ddbE
                0x0000000040037638       0x2c bin/obj/rslib.a(core-9bc28a7f9131c3bd.core.d226853cd57cf678-cgu.0.rcgu.o)
                0x0000000040037638                core::unicode::unicode_data::lowercase::BITSET_MAPPING
 .rodata._ZN4core7unicode12unicode_data1n17SHORT_OFFSET_RUNS17h73399a0944b0a690E
                0x0000000040037664       0xa8 bin/obj/rslib.a(core-9bc28a7f9131c3bd.core.d226853cd57cf678-cgu.0.rcgu.o)
 .rodata._ZN4core7unicode12unicode_data9uppercase19BITSET_INDEX_CHUNKS17h8f94077aeb4d75e7E
                0x000000004003770c      0x110 bin/obj/rslib.a(core-9bc28a7f9131c3bd.core.d226853cd57cf678-cgu.0.rcgu.o)
                0x000000004003770c                core::unicode::unicode_data::uppercase::BITSET_INDEX_CHUNKS
 *fill*         0x000000004003781c        0x4 
 .rodata._ZN4core7unicode12unicode_data9uppercase16BITSET_CANONICAL17h15c0c94fc0c5a486E
                0x0000000040037820      0x160 bin/obj/rslib.a(core-9bc28a7f9131c3bd.core.d226853cd57cf678-cgu.0.rcgu.o)
                0x0000000040037820                core::unicode::unicode_data::uppercase::BITSET_CANONICAL
 .rodata._ZN4core7unicode12unicode_data9uppercase14BITSET_MAPPING17h6c92632bc5972eabE
                0x0000000040037980       0x32 bin/obj/rslib.a(core-9bc28a7f9131c3bd.core.d226853cd57cf678-cgu.0.rcgu.o)
                0x0000000040037980                core::unicode::unicode_data::uppercase::BITSET_MAPPING
 *fill*         0x00000000400379b2        0x6 
 .rodata..Lanon.dabceac4c2e9a1f7e7ee9d5fdd3d8f81.497
                0x00000000400379b8       0x18 bin/obj/rslib.a(core-9bc28a7f9131c3bd.core.d226853cd57cf678-cgu.0.rcgu.o)
 .rodata..Lanon.dabceac4c2e9a1f7e7ee9d5fdd3d8f81.498
                0x00000000400379d0       0x18 bin/obj/rslib.a(core-9bc28a7f9131c3bd.core.d226853cd57cf678-cgu.0.rcgu.o)
 .rodata..Lanon.dabceac4c2e9a1f7e7ee9d5fdd3d8f81.499
                0x00000000400379e8     0x2cd0 bin/obj/rslib.a(core-9bc28a7f9131c3bd.core.d226853cd57cf678-cgu.0.rcgu.o)
 .rodata..Lanon.dabceac4c2e9a1f7e7ee9d5fdd3d8f81.500
                0x000000004003a6b8     0x2fb0 bin/obj/rslib.a(core-9bc28a7f9131c3bd.core.d226853cd57cf678-cgu.0.rcgu.o)
 .rodata..Lanon.dabceac4c2e9a1f7e7ee9d5fdd3d8f81.501
                0x000000004003d668      0x4c8 bin/obj/rslib.a(core-9bc28a7f9131c3bd.core.d226853cd57cf678-cgu.0.rcgu.o)
 .rodata..Lswitch.table._ZN70_$LT$core..num..error..ParseIntError$u20$as$u20$core..fmt..Display$GT$3fmt17hc12b04f0a82537ffE
                0x000000004003db30       0x28 bin/obj/rslib.a(core-9bc28a7f9131c3bd.core.d226853cd57cf678-cgu.0.rcgu.o)
 .rodata..Lswitch.table._ZN70_$LT$core..num..error..ParseIntError$u20$as$u20$core..fmt..Display$GT$3fmt17hc12b04f0a82537ffE.270
                0x000000004003db58       0x28 bin/obj/rslib.a(core-9bc28a7f9131c3bd.core.d226853cd57cf678-cgu.0.rcgu.o)
 .rodata..Lswitch.table._ZN72_$LT$core..net..parser..AddrParseError$u20$as$u20$core..fmt..Display$GT$3fmt17h86b0b6ce6dd91ce6E
                0x000000004003db80       0x30 bin/obj/rslib.a(core-9bc28a7f9131c3bd.core.d226853cd57cf678-cgu.0.rcgu.o)
 .rodata..Lswitch.table._ZN72_$LT$core..net..parser..AddrParseError$u20$as$u20$core..fmt..Display$GT$3fmt17h86b0b6ce6dd91ce6E.271
                0x000000004003dbb0       0x30 bin/obj/rslib.a(core-9bc28a7f9131c3bd.core.d226853cd57cf678-cgu.0.rcgu.o)
 .rodata..Lswitch.table._ZN4core9panicking19assert_failed_inner17h3ec2d0c2274a870cE
                0x000000004003dbe0       0x18 bin/obj/rslib.a(core-9bc28a7f9131c3bd.core.d226853cd57cf678-cgu.0.rcgu.o)
 .rodata..Lswitch.table._ZN4core9panicking19assert_failed_inner17h3ec2d0c2274a870cE.272
                0x000000004003dbf8       0x18 bin/obj/rslib.a(core-9bc28a7f9131c3bd.core.d226853cd57cf678-cgu.0.rcgu.o)
 *(.rodata.*)
                0x000000004003dc10                . = ALIGN (0x8)
                0x000000004003dc10                __kernel_init_stage0_start = .
 *(.kernel_init_stage0)
 .kernel_init_stage0
                0x000000004003dc10        0x8 bin/obj/kernel/irq/irq.o
 .kernel_init_stage0
                0x000000004003dc18       0x18 bin/obj/kernel/init/init_drivers.o
 .kernel_init_stage0
                0x000000004003dc30        0x8 bin/obj/kernel/init/init.o
                0x000000004003dc38                __kernel_init_stage0_end = .
                0x000000004003dc38                . = ALIGN (0x8)
                0x000000004003dc38                __kernel_init_stage1_start = .
 *(.kernel_init_stage1)
 .kernel_init_stage1
                0x000000004003dc38       0x10 bin/obj/kernel/init/init_drivers.o
 .kernel_init_stage1
                0x000000004003dc48        0x8 bin/obj/kernel/init/init.o
                0x000000004003dc50                __kernel_init_stage1_end = .
                0x000000004003dc50                . = ALIGN (0x8)
                0x000000004003dc50                __kernel_init_stage2_start = .
 *(.kernel_init_stage2)
 .kernel_init_stage2
                0x000000004003dc50       0x10 bin/obj/kernel/init/init_drivers.o
 .kernel_init_stage2
                0x000000004003dc60        0x8 bin/obj/kernel/init/init.o
                0x000000004003dc68                __kernel_init_stage2_end = .
                0x000000004003dc70                . = ALIGN (0x10)
 *fill*         0x000000004003dc68        0x8 

.data           0x000000004003dc70       0x40
 *(.data*)
 .data          0x000000004003dc70        0x0 bin/obj/__arm/cache/cache.o
 .data          0x000000004003dc70        0x0 bin/obj/__arm/cache/icache.o
 .data          0x000000004003dc70        0x0 bin/obj/__arm/cache/dcache.o
 .data          0x000000004003dc70        0x0 bin/obj/__arm/sysregs/arm_generic_timer.o
 .data          0x000000004003dc70        0x0 bin/obj/__arm/sysregs/sysregs.o
 .data          0x000000004003dc70        0x0 bin/obj/__arm/exceptions/el2_vectors.o
 .data          0x000000004003dc70        0x0 bin/obj/__arm/exceptions/exceptions.o
 .data          0x000000004003dc70        0x0 bin/obj/__arm/exceptions/el1_vectors.o
 .data          0x000000004003dc70        0x0 bin/obj/__lib/memcpy/memcpy.o
 .data          0x000000004003dc70        0x0 bin/obj/__lib/lock/spinlock_irq.o
 .data          0x000000004003dc70        0x0 bin/obj/__lib/lock/irqlock.o
 .data          0x000000004003dc70        0x0 bin/obj/__lib/lock/spinlock.o
 .data          0x000000004003dc70        0x0 bin/obj/__boot/clean_bss.o
 .data          0x000000004003dc70        0x0 bin/obj/__boot/boot.o
 .data          0x000000004003dc70        0x0 bin/obj/__boot/el1.o
 .data          0x000000004003dc70        0x0 bin/obj/__boot/panic/panic.o
 .data          0x000000004003dc70        0x0 bin/obj/__drivers/tmu/tmu_critical_default.o
 .data          0x000000004003dc70        0x0 bin/obj/__drivers/interrupts/gicv3/gicv3_arm_interface.o
 .data          0x000000004003dc70        0x0 bin/obj/kernel/irq/irq.o
 .data          0x000000004003dc70        0x0 bin/obj/kernel/devices/drivers.o
 .data          0x000000004003dc70        0x0 bin/obj/kernel/init/init_drivers.o
 .data          0x000000004003dc70        0x0 bin/obj/kernel/init/init.o
 .data          0x000000004003dc70        0x0 bin/obj/kernel/malloc/buddy_allocator.o
 .data          0x000000004003dc70        0x0 bin/obj/kernel/kernel_entry.o
 .data          0x000000004003dc70        0x0 bin/obj/arm/cpu.o
 .data          0x000000004003dc70        0x0 bin/obj/arm/exceptions/handlers/el1/el1_cur_sp0_fiq.o
 .data          0x000000004003dc70        0x0 bin/obj/arm/exceptions/handlers/el1/el1_low_a32_serror.o
 .data          0x000000004003dc70        0x0 bin/obj/arm/exceptions/handlers/el1/el1_low_a32_fiq.o
 .data          0x000000004003dc70        0x0 bin/obj/arm/exceptions/handlers/el1/el1_low_a64_sync.o
 .data          0x000000004003dc70        0x0 bin/obj/arm/exceptions/handlers/el1/el1_cur_spx_sync.o
 .data          0x000000004003dc70        0x0 bin/obj/arm/exceptions/handlers/el1/el1_cur_spx_fiq.o
 .data          0x000000004003dc70        0x0 bin/obj/arm/exceptions/handlers/el1/el1_cur_spx_irq.o
 .data          0x000000004003dc70        0x0 bin/obj/arm/exceptions/handlers/el1/el1_cur_spx_serror.o
 .data          0x000000004003dc70        0x0 bin/obj/arm/exceptions/handlers/el1/el1_low_a32_irq.o
 .data          0x000000004003dc70        0x0 bin/obj/arm/exceptions/handlers/el1/el1_low_a64_fiq.o
 .data          0x000000004003dc70        0x0 bin/obj/arm/exceptions/handlers/el1/el1_low_a64_irq.o
 .data          0x000000004003dc70        0x0 bin/obj/arm/exceptions/handlers/el1/el1_cur_sp0_sync.o
 .data          0x000000004003dc70        0x0 bin/obj/arm/exceptions/handlers/el1/el1_cur_sp0_irq.o
 .data          0x000000004003dc70        0x0 bin/obj/arm/exceptions/handlers/el1/el1_low_a64_serror.o
 .data          0x000000004003dc70        0x0 bin/obj/arm/exceptions/handlers/el1/el1_low_a32_sync.o
 .data          0x000000004003dc70        0x0 bin/obj/arm/exceptions/handlers/el1/el1_cur_sp0_serror.o
 .data          0x000000004003dc70        0x0 bin/obj/arm/exceptions/handlers/el2/el2_low_a32_serror.o
 .data          0x000000004003dc70        0x0 bin/obj/arm/exceptions/handlers/el2/el2_cur_spx_serror.o
 .data          0x000000004003dc70        0x0 bin/obj/arm/exceptions/handlers/el2/el2_low_a64_serror.o
 .data          0x000000004003dc70        0x0 bin/obj/arm/exceptions/handlers/el2/el2_low_a64_sync.o
 .data          0x000000004003dc70        0x0 bin/obj/arm/exceptions/handlers/el2/el2_cur_sp0_irq.o
 .data          0x000000004003dc70        0x0 bin/obj/arm/exceptions/handlers/el2/el2_cur_sp0_serror.o
 .data          0x000000004003dc70        0x0 bin/obj/arm/exceptions/handlers/el2/el2_low_a64_irq.o
 .data          0x000000004003dc70        0x0 bin/obj/arm/exceptions/handlers/el2/el2_low_a64_fiq.o
 .data          0x000000004003dc70        0x0 bin/obj/arm/exceptions/handlers/el2/el2_cur_spx_fiq.o
 .data          0x000000004003dc70        0x0 bin/obj/arm/exceptions/handlers/el2/el2_low_a32_irq.o
 .data          0x000000004003dc70        0x0 bin/obj/arm/exceptions/handlers/el2/el2_cur_sp0_fiq.o
 .data          0x000000004003dc70        0x0 bin/obj/arm/exceptions/handlers/el2/el2_low_a32_fiq.o
 .data          0x000000004003dc70        0x0 bin/obj/arm/exceptions/handlers/el2/el2_cur_spx_sync.o
 .data          0x000000004003dc70        0x0 bin/obj/arm/exceptions/handlers/el2/el2_low_a32_sync.o
 .data          0x000000004003dc70        0x0 bin/obj/arm/exceptions/handlers/el2/el2_cur_sp0_sync.o
 .data          0x000000004003dc70        0x0 bin/obj/arm/exceptions/handlers/el2/el2_cur_spx_irq.o
 .data          0x000000004003dc70        0x0 bin/obj/arm/exceptions/exceptions.o
 .data          0x000000004003dc70        0x0 bin/obj/lib/string.o
 .data          0x000000004003dc70        0x0 bin/obj/lib/memcpy/memcpy.o
 .data          0x000000004003dc70       0x40 bin/obj/boot/panic/panic.o
 .data          0x000000004003dcb0        0x0 bin/obj/drivers/arm_generic_timer/arm_generic_timer.o
 .data          0x000000004003dcb0        0x0 bin/obj/drivers/tmu/tmu.o
 .data          0x000000004003dcb0        0x0 bin/obj/drivers/interrupts/gicv3/gicv3.o
 .data          0x000000004003dcb0        0x0 bin/obj/drivers/interrupts/irq.o
 .data          0x000000004003dcb0        0x0 bin/obj/drivers/uart/uart.o
                0x000000004003dcb0                . = ALIGN (0x10)

.igot.plt       0x000000004003dcb0        0x0
 .igot.plt      0x000000004003dcb0        0x0 bin/obj/__arm/exceptions/el2_vectors.o

.bss            0x000000004003dcc0   0xc0b4c0
                0x000000004003dcc0                __bss_start = .
 *(.bss*)
 .bss           0x000000004003dcc0        0x0 bin/obj/__arm/cache/cache.o
 .bss           0x000000004003dcc0        0x0 bin/obj/__arm/cache/icache.o
 .bss           0x000000004003dcc0        0x0 bin/obj/__arm/cache/dcache.o
 .bss           0x000000004003dcc0        0x0 bin/obj/__arm/sysregs/arm_generic_timer.o
 .bss           0x000000004003dcc0        0x0 bin/obj/__arm/sysregs/sysregs.o
 .bss           0x000000004003dcc0        0x0 bin/obj/__arm/exceptions/el2_vectors.o
 .bss           0x000000004003dcc0        0x0 bin/obj/__arm/exceptions/exceptions.o
 .bss           0x000000004003dcc0        0x0 bin/obj/__arm/exceptions/el1_vectors.o
 .bss           0x000000004003dcc0        0x0 bin/obj/__lib/memcpy/memcpy.o
 .bss           0x000000004003dcc0        0x0 bin/obj/__lib/lock/spinlock_irq.o
 .bss           0x000000004003dcc0        0x0 bin/obj/__lib/lock/irqlock.o
 .bss           0x000000004003dcc0        0x0 bin/obj/__lib/lock/spinlock.o
 .bss           0x000000004003dcc0        0x0 bin/obj/__boot/clean_bss.o
 .bss           0x000000004003dcc0        0x0 bin/obj/__boot/boot.o
 .bss           0x000000004003dcc0        0x0 bin/obj/__boot/el1.o
 .bss           0x000000004003dcc0        0x0 bin/obj/__boot/panic/panic.o
 .bss           0x000000004003dcc0        0x0 bin/obj/__drivers/tmu/tmu_critical_default.o
 .bss           0x000000004003dcc0        0x0 bin/obj/__drivers/interrupts/gicv3/gicv3_arm_interface.o
 .bss           0x000000004003dcc0      0xc00 bin/obj/kernel/irq/irq.o
 .bss           0x000000004003e8c0     0x9380 bin/obj/kernel/devices/drivers.o
 .bss           0x0000000040047c40        0x0 bin/obj/kernel/init/init_drivers.o
 .bss           0x0000000040047c40        0x0 bin/obj/kernel/init/init.o
 .bss           0x0000000040047c40        0x0 bin/obj/kernel/malloc/buddy_allocator.o
 .bss           0x0000000040047c40        0x0 bin/obj/kernel/kernel_entry.o
 .bss           0x0000000040047c40        0x0 bin/obj/arm/cpu.o
 .bss           0x0000000040047c40        0x0 bin/obj/arm/exceptions/handlers/el1/el1_cur_sp0_fiq.o
 .bss           0x0000000040047c40        0x0 bin/obj/arm/exceptions/handlers/el1/el1_low_a32_serror.o
 .bss           0x0000000040047c40        0x0 bin/obj/arm/exceptions/handlers/el1/el1_low_a32_fiq.o
 .bss           0x0000000040047c40        0x0 bin/obj/arm/exceptions/handlers/el1/el1_low_a64_sync.o
 .bss           0x0000000040047c40        0x0 bin/obj/arm/exceptions/handlers/el1/el1_cur_spx_sync.o
 .bss           0x0000000040047c40        0x0 bin/obj/arm/exceptions/handlers/el1/el1_cur_spx_fiq.o
 .bss           0x0000000040047c40        0x0 bin/obj/arm/exceptions/handlers/el1/el1_cur_spx_irq.o
 .bss           0x0000000040047c40        0x0 bin/obj/arm/exceptions/handlers/el1/el1_cur_spx_serror.o
 .bss           0x0000000040047c40        0x0 bin/obj/arm/exceptions/handlers/el1/el1_low_a32_irq.o
 .bss           0x0000000040047c40        0x0 bin/obj/arm/exceptions/handlers/el1/el1_low_a64_fiq.o
 .bss           0x0000000040047c40        0x0 bin/obj/arm/exceptions/handlers/el1/el1_low_a64_irq.o
 .bss           0x0000000040047c40        0x0 bin/obj/arm/exceptions/handlers/el1/el1_cur_sp0_sync.o
 .bss           0x0000000040047c40        0x0 bin/obj/arm/exceptions/handlers/el1/el1_cur_sp0_irq.o
 .bss           0x0000000040047c40        0x0 bin/obj/arm/exceptions/handlers/el1/el1_low_a64_serror.o
 .bss           0x0000000040047c40        0x0 bin/obj/arm/exceptions/handlers/el1/el1_low_a32_sync.o
 .bss           0x0000000040047c40        0x0 bin/obj/arm/exceptions/handlers/el1/el1_cur_sp0_serror.o
 .bss           0x0000000040047c40        0x0 bin/obj/arm/exceptions/handlers/el2/el2_low_a32_serror.o
 .bss           0x0000000040047c40        0x0 bin/obj/arm/exceptions/handlers/el2/el2_cur_spx_serror.o
 .bss           0x0000000040047c40        0x0 bin/obj/arm/exceptions/handlers/el2/el2_low_a64_serror.o
 .bss           0x0000000040047c40        0x0 bin/obj/arm/exceptions/handlers/el2/el2_low_a64_sync.o
 .bss           0x0000000040047c40        0x0 bin/obj/arm/exceptions/handlers/el2/el2_cur_sp0_irq.o
 .bss           0x0000000040047c40        0x0 bin/obj/arm/exceptions/handlers/el2/el2_cur_sp0_serror.o
 .bss           0x0000000040047c40        0x0 bin/obj/arm/exceptions/handlers/el2/el2_low_a64_irq.o
 .bss           0x0000000040047c40        0x0 bin/obj/arm/exceptions/handlers/el2/el2_low_a64_fiq.o
 .bss           0x0000000040047c40        0x0 bin/obj/arm/exceptions/handlers/el2/el2_cur_spx_fiq.o
 .bss           0x0000000040047c40        0x0 bin/obj/arm/exceptions/handlers/el2/el2_low_a32_irq.o
 .bss           0x0000000040047c40        0x0 bin/obj/arm/exceptions/handlers/el2/el2_cur_sp0_fiq.o
 .bss           0x0000000040047c40        0x0 bin/obj/arm/exceptions/handlers/el2/el2_low_a32_fiq.o
 .bss           0x0000000040047c40        0x0 bin/obj/arm/exceptions/handlers/el2/el2_cur_spx_sync.o
 .bss           0x0000000040047c40        0x0 bin/obj/arm/exceptions/handlers/el2/el2_low_a32_sync.o
 .bss           0x0000000040047c40        0x0 bin/obj/arm/exceptions/handlers/el2/el2_cur_sp0_sync.o
 .bss           0x0000000040047c40        0x0 bin/obj/arm/exceptions/handlers/el2/el2_cur_spx_irq.o
 .bss           0x0000000040047c40        0x0 bin/obj/arm/exceptions/exceptions.o
 .bss           0x0000000040047c40        0x0 bin/obj/lib/string.o
 .bss           0x0000000040047c40   0xc00000 bin/obj/lib/memcpy/memcpy.o
                0x0000000040047c40                src
                0x0000000040447c40                dst
                0x0000000040847c40                ref
 .bss           0x0000000040c47c40     0x1530 bin/obj/boot/panic/panic.o
                0x0000000040c47c40                PANIC_MESSAGE_BUF_SIZE
                0x0000000040c47c48                PANIC_FILE_BUF_SIZE
                0x0000000040c47c50                PANIC_MESSAGE_BUF_PTR
                0x0000000040c47c58                PANIC_FILE_BUF_PTR
                0x0000000040c47c60                PANIC_LINE
                0x0000000040c47c64                PANIC_COL
                0x0000000040c47c68                PANIC_REASON
                0x0000000040c47c70                PANIC_REGISTERS
 .bss           0x0000000040c49170        0x0 bin/obj/drivers/arm_generic_timer/arm_generic_timer.o
 .bss           0x0000000040c49170        0x0 bin/obj/drivers/tmu/tmu.o
 .bss           0x0000000040c49170        0x0 bin/obj/drivers/interrupts/gicv3/gicv3.o
 .bss           0x0000000040c49170        0x0 bin/obj/drivers/interrupts/irq.o
 .bss           0x0000000040c49170        0x0 bin/obj/drivers/uart/uart.o
 *(COMMON)
                0x0000000040c49180                . = ALIGN (0x40)
 *fill*         0x0000000040c49170       0x10 
                0x0000000040c49180                __bss_end = .

.stacks         0x0000000040c4a000   0xf00000
                0x0000000040c4a000                . = ALIGN (0x10)
                0x0000000040c4a000                __stack_el2_bottom = .
                0x000000004114a000                . = (. + 0x500000)
 *fill*         0x0000000040c4a000   0x500000 
                0x000000004114a000                __stack_el2_top = .
                0x000000004114a000                . = ALIGN (0x10)
                0x000000004114a000                __stack_el1_bottom = .
                0x000000004164a000                . = (. + 0x500000)
 *fill*         0x000000004114a000   0x500000 
                0x000000004164a000                __stack_el1_top = .
                0x000000004164a000                . = ALIGN (0x10)
                0x000000004164a000                __stack_el0_bottom = .
                0x0000000041b4a000                . = (. + 0x500000)
 *fill*         0x000000004164a000   0x500000 
                0x0000000041b4a000                __stack_el0_top = .
LOAD bin/obj/__arm/cache/cache.o
LOAD bin/obj/__arm/cache/icache.o
LOAD bin/obj/__arm/cache/dcache.o
LOAD bin/obj/__arm/sysregs/arm_generic_timer.o
LOAD bin/obj/__arm/sysregs/sysregs.o
LOAD bin/obj/__arm/exceptions/el2_vectors.o
LOAD bin/obj/__arm/exceptions/exceptions.o
LOAD bin/obj/__arm/exceptions/el1_vectors.o
LOAD bin/obj/__lib/memcpy/memcpy.o
LOAD bin/obj/__lib/lock/spinlock_irq.o
LOAD bin/obj/__lib/lock/irqlock.o
LOAD bin/obj/__lib/lock/spinlock.o
LOAD bin/obj/__boot/clean_bss.o
LOAD bin/obj/__boot/boot.o
LOAD bin/obj/__boot/el1.o
LOAD bin/obj/__boot/panic/panic.o
LOAD bin/obj/__drivers/tmu/tmu_critical_default.o
LOAD bin/obj/__drivers/interrupts/gicv3/gicv3_arm_interface.o
LOAD bin/obj/kernel/irq/irq.o
LOAD bin/obj/kernel/devices/drivers.o
LOAD bin/obj/kernel/init/init_drivers.o
LOAD bin/obj/kernel/init/init.o
LOAD bin/obj/kernel/malloc/buddy_allocator.o
LOAD bin/obj/kernel/kernel_entry.o
LOAD bin/obj/arm/cpu.o
LOAD bin/obj/arm/exceptions/handlers/el1/el1_cur_sp0_fiq.o
LOAD bin/obj/arm/exceptions/handlers/el1/el1_low_a32_serror.o
LOAD bin/obj/arm/exceptions/handlers/el1/el1_low_a32_fiq.o
LOAD bin/obj/arm/exceptions/handlers/el1/el1_low_a64_sync.o
LOAD bin/obj/arm/exceptions/handlers/el1/el1_cur_spx_sync.o
LOAD bin/obj/arm/exceptions/handlers/el1/el1_cur_spx_fiq.o
LOAD bin/obj/arm/exceptions/handlers/el1/el1_cur_spx_irq.o
LOAD bin/obj/arm/exceptions/handlers/el1/el1_cur_spx_serror.o
LOAD bin/obj/arm/exceptions/handlers/el1/el1_low_a32_irq.o
LOAD bin/obj/arm/exceptions/handlers/el1/el1_low_a64_fiq.o
LOAD bin/obj/arm/exceptions/handlers/el1/el1_low_a64_irq.o
LOAD bin/obj/arm/exceptions/handlers/el1/el1_cur_sp0_sync.o
LOAD bin/obj/arm/exceptions/handlers/el1/el1_cur_sp0_irq.o
LOAD bin/obj/arm/exceptions/handlers/el1/el1_low_a64_serror.o
LOAD bin/obj/arm/exceptions/handlers/el1/el1_low_a32_sync.o
LOAD bin/obj/arm/exceptions/handlers/el1/el1_cur_sp0_serror.o
LOAD bin/obj/arm/exceptions/handlers/el2/el2_low_a32_serror.o
LOAD bin/obj/arm/exceptions/handlers/el2/el2_cur_spx_serror.o
LOAD bin/obj/arm/exceptions/handlers/el2/el2_low_a64_serror.o
LOAD bin/obj/arm/exceptions/handlers/el2/el2_low_a64_sync.o
LOAD bin/obj/arm/exceptions/handlers/el2/el2_cur_sp0_irq.o
LOAD bin/obj/arm/exceptions/handlers/el2/el2_cur_sp0_serror.o
LOAD bin/obj/arm/exceptions/handlers/el2/el2_low_a64_irq.o
LOAD bin/obj/arm/exceptions/handlers/el2/el2_low_a64_fiq.o
LOAD bin/obj/arm/exceptions/handlers/el2/el2_cur_spx_fiq.o
LOAD bin/obj/arm/exceptions/handlers/el2/el2_low_a32_irq.o
LOAD bin/obj/arm/exceptions/handlers/el2/el2_cur_sp0_fiq.o
LOAD bin/obj/arm/exceptions/handlers/el2/el2_low_a32_fiq.o
LOAD bin/obj/arm/exceptions/handlers/el2/el2_cur_spx_sync.o
LOAD bin/obj/arm/exceptions/handlers/el2/el2_low_a32_sync.o
LOAD bin/obj/arm/exceptions/handlers/el2/el2_cur_sp0_sync.o
LOAD bin/obj/arm/exceptions/handlers/el2/el2_cur_spx_irq.o
LOAD bin/obj/arm/exceptions/exceptions.o
LOAD bin/obj/lib/string.o
LOAD bin/obj/lib/memcpy/memcpy.o
LOAD bin/obj/boot/panic/panic.o
LOAD bin/obj/drivers/arm_generic_timer/arm_generic_timer.o
LOAD bin/obj/drivers/tmu/tmu.o
LOAD bin/obj/drivers/interrupts/gicv3/gicv3.o
LOAD bin/obj/drivers/interrupts/irq.o
LOAD bin/obj/drivers/uart/uart.o
LOAD bin/obj/rslib.a
OUTPUT(bin/kernel.elf elf64-littleaarch64)
LOAD linker stubs

.debug_line     0x0000000000000000    0x1e250
 .debug_line    0x0000000000000000       0x5a bin/obj/__arm/cache/cache.o
 .debug_line    0x000000000000005a       0x59 bin/obj/__arm/cache/icache.o
 .debug_line    0x00000000000000b3       0x59 bin/obj/__arm/cache/dcache.o
 .debug_line    0x000000000000010c       0x9b bin/obj/__arm/sysregs/arm_generic_timer.o
 .debug_line    0x00000000000001a7       0x67 bin/obj/__arm/sysregs/sysregs.o
 .debug_line    0x000000000000020e       0xb3 bin/obj/__arm/exceptions/el2_vectors.o
 .debug_line    0x00000000000002c1       0x64 bin/obj/__arm/exceptions/exceptions.o
 .debug_line    0x0000000000000325       0xb3 bin/obj/__arm/exceptions/el1_vectors.o
 .debug_line    0x00000000000003d8       0xd4 bin/obj/__lib/memcpy/memcpy.o
 .debug_line    0x00000000000004ac       0x59 bin/obj/__lib/lock/spinlock_irq.o
 .debug_line    0x0000000000000505       0x4f bin/obj/__lib/lock/irqlock.o
 .debug_line    0x0000000000000554       0x64 bin/obj/__lib/lock/spinlock.o
 .debug_line    0x00000000000005b8       0x5b bin/obj/__boot/clean_bss.o
 .debug_line    0x0000000000000613       0x58 bin/obj/__boot/boot.o
 .debug_line    0x000000000000066b       0x70 bin/obj/__boot/el1.o
 .debug_line    0x00000000000006db       0x61 bin/obj/__boot/panic/panic.o
 .debug_line    0x000000000000073c       0x4c bin/obj/__drivers/tmu/tmu_critical_default.o
 .debug_line    0x0000000000000788       0x59 bin/obj/__drivers/interrupts/gicv3/gicv3_arm_interface.o
 .debug_line    0x00000000000007e1       0xe7 bin/obj/kernel/irq/irq.o
 .debug_line    0x00000000000008c8       0x7a bin/obj/kernel/devices/drivers.o
 .debug_line    0x0000000000000942      0x103 bin/obj/kernel/init/init_drivers.o
 .debug_line    0x0000000000000a45       0xea bin/obj/kernel/init/init.o
 .debug_line    0x0000000000000b2f        0x0 bin/obj/kernel/malloc/buddy_allocator.o
 .debug_line    0x0000000000000b2f       0xee bin/obj/kernel/kernel_entry.o
 .debug_line    0x0000000000000c1d       0x83 bin/obj/arm/cpu.o
 .debug_line    0x0000000000000ca0       0x60 bin/obj/arm/exceptions/handlers/el1/el1_cur_sp0_fiq.o
 .debug_line    0x0000000000000d00       0x60 bin/obj/arm/exceptions/handlers/el1/el1_low_a32_serror.o
 .debug_line    0x0000000000000d60       0x60 bin/obj/arm/exceptions/handlers/el1/el1_low_a32_fiq.o
 .debug_line    0x0000000000000dc0       0x60 bin/obj/arm/exceptions/handlers/el1/el1_low_a64_sync.o
 .debug_line    0x0000000000000e20       0x60 bin/obj/arm/exceptions/handlers/el1/el1_cur_spx_sync.o
 .debug_line    0x0000000000000e80       0x60 bin/obj/arm/exceptions/handlers/el1/el1_cur_spx_fiq.o
 .debug_line    0x0000000000000ee0       0x72 bin/obj/arm/exceptions/handlers/el1/el1_cur_spx_irq.o
 .debug_line    0x0000000000000f52       0x60 bin/obj/arm/exceptions/handlers/el1/el1_cur_spx_serror.o
 .debug_line    0x0000000000000fb2       0x60 bin/obj/arm/exceptions/handlers/el1/el1_low_a32_irq.o
 .debug_line    0x0000000000001012       0x60 bin/obj/arm/exceptions/handlers/el1/el1_low_a64_fiq.o
 .debug_line    0x0000000000001072       0x60 bin/obj/arm/exceptions/handlers/el1/el1_low_a64_irq.o
 .debug_line    0x00000000000010d2       0x60 bin/obj/arm/exceptions/handlers/el1/el1_cur_sp0_sync.o
 .debug_line    0x0000000000001132       0x60 bin/obj/arm/exceptions/handlers/el1/el1_cur_sp0_irq.o
 .debug_line    0x0000000000001192       0x60 bin/obj/arm/exceptions/handlers/el1/el1_low_a64_serror.o
 .debug_line    0x00000000000011f2       0x60 bin/obj/arm/exceptions/handlers/el1/el1_low_a32_sync.o
 .debug_line    0x0000000000001252       0x60 bin/obj/arm/exceptions/handlers/el1/el1_cur_sp0_serror.o
 .debug_line    0x00000000000012b2       0x60 bin/obj/arm/exceptions/handlers/el2/el2_low_a32_serror.o
 .debug_line    0x0000000000001312       0x60 bin/obj/arm/exceptions/handlers/el2/el2_cur_spx_serror.o
 .debug_line    0x0000000000001372       0x60 bin/obj/arm/exceptions/handlers/el2/el2_low_a64_serror.o
 .debug_line    0x00000000000013d2       0x60 bin/obj/arm/exceptions/handlers/el2/el2_low_a64_sync.o
 .debug_line    0x0000000000001432       0x60 bin/obj/arm/exceptions/handlers/el2/el2_cur_sp0_irq.o
 .debug_line    0x0000000000001492       0x60 bin/obj/arm/exceptions/handlers/el2/el2_cur_sp0_serror.o
 .debug_line    0x00000000000014f2       0x60 bin/obj/arm/exceptions/handlers/el2/el2_low_a64_irq.o
 .debug_line    0x0000000000001552       0x60 bin/obj/arm/exceptions/handlers/el2/el2_low_a64_fiq.o
 .debug_line    0x00000000000015b2       0x60 bin/obj/arm/exceptions/handlers/el2/el2_cur_spx_fiq.o
 .debug_line    0x0000000000001612       0x60 bin/obj/arm/exceptions/handlers/el2/el2_low_a32_irq.o
 .debug_line    0x0000000000001672       0x60 bin/obj/arm/exceptions/handlers/el2/el2_cur_sp0_fiq.o
 .debug_line    0x00000000000016d2       0x60 bin/obj/arm/exceptions/handlers/el2/el2_low_a32_fiq.o
 .debug_line    0x0000000000001732       0x60 bin/obj/arm/exceptions/handlers/el2/el2_cur_spx_sync.o
 .debug_line    0x0000000000001792       0x60 bin/obj/arm/exceptions/handlers/el2/el2_low_a32_sync.o
 .debug_line    0x00000000000017f2       0x60 bin/obj/arm/exceptions/handlers/el2/el2_cur_sp0_sync.o
 .debug_line    0x0000000000001852       0x60 bin/obj/arm/exceptions/handlers/el2/el2_cur_spx_irq.o
 .debug_line    0x00000000000018b2      0x168 bin/obj/arm/exceptions/exceptions.o
 .debug_line    0x0000000000001a1a      0x275 bin/obj/lib/string.o
 .debug_line    0x0000000000001c8f      0x16c bin/obj/lib/memcpy/memcpy.o
 .debug_line    0x0000000000001dfb      0x29e bin/obj/boot/panic/panic.o
 .debug_line    0x0000000000002099      0x294 bin/obj/drivers/arm_generic_timer/arm_generic_timer.o
 .debug_line    0x000000000000232d      0x6be bin/obj/drivers/tmu/tmu.o
 .debug_line    0x00000000000029eb      0x47b bin/obj/drivers/interrupts/gicv3/gicv3.o
 .debug_line    0x0000000000002e66        0x0 bin/obj/drivers/interrupts/irq.o
 .debug_line    0x0000000000002e66      0x7e9 bin/obj/drivers/uart/uart.o
 .debug_line    0x000000000000364f      0x750 bin/obj/rslib.a(imx8mp_kernel-d04bdacbb24302de.imx8mp_kernel.6f56ecdf942cbc9a-cgu.0.rcgu.o)
 .debug_line    0x0000000000003d9f    0x196be bin/obj/rslib.a(core-9bc28a7f9131c3bd.core.d226853cd57cf678-cgu.0.rcgu.o)
 .debug_line    0x000000000001d45d      0x11b bin/obj/rslib.a(compiler_builtins-f062c31c443b6323.compiler_builtins.9d65875af80bedf9-cgu.155.rcgu.o)
 .debug_line    0x000000000001d578      0x16f bin/obj/rslib.a(compiler_builtins-f062c31c443b6323.compiler_builtins.9d65875af80bedf9-cgu.167.rcgu.o)
 .debug_line    0x000000000001d6e7      0x2ec bin/obj/rslib.a(compiler_builtins-f062c31c443b6323.compiler_builtins.9d65875af80bedf9-cgu.195.rcgu.o)
 .debug_line    0x000000000001d9d3      0x389 bin/obj/rslib.a(compiler_builtins-f062c31c443b6323.compiler_builtins.9d65875af80bedf9-cgu.254.rcgu.o)
 .debug_line    0x000000000001dd5c      0x4f4 bin/obj/rslib.a(compiler_builtins-f062c31c443b6323.compiler_builtins.9d65875af80bedf9-cgu.010.rcgu.o)

.debug_line_str
                0x0000000000000000      0xe6b
 .debug_line_str
                0x0000000000000000      0xe6b bin/obj/__arm/cache/cache.o
                                         0x42 (size before relaxing)
 .debug_line_str
                0x0000000000000e6b       0x43 bin/obj/__arm/cache/icache.o
 .debug_line_str
                0x0000000000000e6b       0x43 bin/obj/__arm/cache/dcache.o
 .debug_line_str
                0x0000000000000e6b       0x50 bin/obj/__arm/sysregs/arm_generic_timer.o
 .debug_line_str
                0x0000000000000e6b       0x46 bin/obj/__arm/sysregs/sysregs.o
 .debug_line_str
                0x0000000000000e6b       0x4d bin/obj/__arm/exceptions/el2_vectors.o
 .debug_line_str
                0x0000000000000e6b       0x4c bin/obj/__arm/exceptions/exceptions.o
 .debug_line_str
                0x0000000000000e6b       0x4d bin/obj/__arm/exceptions/el1_vectors.o
 .debug_line_str
                0x0000000000000e6b       0x44 bin/obj/__lib/memcpy/memcpy.o
 .debug_line_str
                0x0000000000000e6b       0x48 bin/obj/__lib/lock/spinlock_irq.o
 .debug_line_str
                0x0000000000000e6b       0x43 bin/obj/__lib/lock/irqlock.o
 .debug_line_str
                0x0000000000000e6b       0x44 bin/obj/__lib/lock/spinlock.o
 .debug_line_str
                0x0000000000000e6b       0x41 bin/obj/__boot/clean_bss.o
 .debug_line_str
                0x0000000000000e6b       0x3c bin/obj/__boot/boot.o
 .debug_line_str
                0x0000000000000e6b       0x3b bin/obj/__boot/el1.o
 .debug_line_str
                0x0000000000000e6b       0x43 bin/obj/__boot/panic/panic.o
 .debug_line_str
                0x0000000000000e6b       0x53 bin/obj/__drivers/tmu/tmu_critical_default.o
 .debug_line_str
                0x0000000000000e6b       0x5f bin/obj/__drivers/interrupts/gicv3/gicv3_arm_interface.o
 .debug_line_str
                0x0000000000000e6b      0x1b0 bin/obj/kernel/irq/irq.o
 .debug_line_str
                0x0000000000000e6b      0x17a bin/obj/kernel/devices/drivers.o
 .debug_line_str
                0x0000000000000e6b      0x1ca bin/obj/kernel/init/init_drivers.o
 .debug_line_str
                0x0000000000000e6b      0x147 bin/obj/kernel/init/init.o
 .debug_line_str
                0x0000000000000e6b       0x50 bin/obj/kernel/malloc/buddy_allocator.o
 .debug_line_str
                0x0000000000000e6b      0x18d bin/obj/kernel/kernel_entry.o
 .debug_line_str
                0x0000000000000e6b       0xc2 bin/obj/arm/cpu.o
 .debug_line_str
                0x0000000000000e6b       0xfa bin/obj/arm/exceptions/handlers/el1/el1_cur_sp0_fiq.o
 .debug_line_str
                0x0000000000000e6b      0x103 bin/obj/arm/exceptions/handlers/el1/el1_low_a32_serror.o
 .debug_line_str
                0x0000000000000e6b       0xfa bin/obj/arm/exceptions/handlers/el1/el1_low_a32_fiq.o
 .debug_line_str
                0x0000000000000e6b       0xfd bin/obj/arm/exceptions/handlers/el1/el1_low_a64_sync.o
 .debug_line_str
                0x0000000000000e6b       0xfd bin/obj/arm/exceptions/handlers/el1/el1_cur_spx_sync.o
 .debug_line_str
                0x0000000000000e6b       0xfa bin/obj/arm/exceptions/handlers/el1/el1_cur_spx_fiq.o
 .debug_line_str
                0x0000000000000e6b      0x128 bin/obj/arm/exceptions/handlers/el1/el1_cur_spx_irq.o
 .debug_line_str
                0x0000000000000e6b      0x103 bin/obj/arm/exceptions/handlers/el1/el1_cur_spx_serror.o
 .debug_line_str
                0x0000000000000e6b       0xfa bin/obj/arm/exceptions/handlers/el1/el1_low_a32_irq.o
 .debug_line_str
                0x0000000000000e6b       0xfa bin/obj/arm/exceptions/handlers/el1/el1_low_a64_fiq.o
 .debug_line_str
                0x0000000000000e6b       0xfa bin/obj/arm/exceptions/handlers/el1/el1_low_a64_irq.o
 .debug_line_str
                0x0000000000000e6b       0xfd bin/obj/arm/exceptions/handlers/el1/el1_cur_sp0_sync.o
 .debug_line_str
                0x0000000000000e6b       0xfa bin/obj/arm/exceptions/handlers/el1/el1_cur_sp0_irq.o
 .debug_line_str
                0x0000000000000e6b      0x103 bin/obj/arm/exceptions/handlers/el1/el1_low_a64_serror.o
 .debug_line_str
                0x0000000000000e6b       0xfd bin/obj/arm/exceptions/handlers/el1/el1_low_a32_sync.o
 .debug_line_str
                0x0000000000000e6b      0x103 bin/obj/arm/exceptions/handlers/el1/el1_cur_sp0_serror.o
 .debug_line_str
                0x0000000000000e6b      0x103 bin/obj/arm/exceptions/handlers/el2/el2_low_a32_serror.o
 .debug_line_str
                0x0000000000000e6b      0x103 bin/obj/arm/exceptions/handlers/el2/el2_cur_spx_serror.o
 .debug_line_str
                0x0000000000000e6b      0x103 bin/obj/arm/exceptions/handlers/el2/el2_low_a64_serror.o
 .debug_line_str
                0x0000000000000e6b       0xfd bin/obj/arm/exceptions/handlers/el2/el2_low_a64_sync.o
 .debug_line_str
                0x0000000000000e6b       0xfa bin/obj/arm/exceptions/handlers/el2/el2_cur_sp0_irq.o
 .debug_line_str
                0x0000000000000e6b      0x103 bin/obj/arm/exceptions/handlers/el2/el2_cur_sp0_serror.o
 .debug_line_str
                0x0000000000000e6b       0xfa bin/obj/arm/exceptions/handlers/el2/el2_low_a64_irq.o
 .debug_line_str
                0x0000000000000e6b       0xfa bin/obj/arm/exceptions/handlers/el2/el2_low_a64_fiq.o
 .debug_line_str
                0x0000000000000e6b       0xfa bin/obj/arm/exceptions/handlers/el2/el2_cur_spx_fiq.o
 .debug_line_str
                0x0000000000000e6b       0xfa bin/obj/arm/exceptions/handlers/el2/el2_low_a32_irq.o
 .debug_line_str
                0x0000000000000e6b       0xfa bin/obj/arm/exceptions/handlers/el2/el2_cur_sp0_fiq.o
 .debug_line_str
                0x0000000000000e6b       0xfa bin/obj/arm/exceptions/handlers/el2/el2_low_a32_fiq.o
 .debug_line_str
                0x0000000000000e6b       0xfd bin/obj/arm/exceptions/handlers/el2/el2_cur_spx_sync.o
 .debug_line_str
                0x0000000000000e6b       0xfd bin/obj/arm/exceptions/handlers/el2/el2_low_a32_sync.o
 .debug_line_str
                0x0000000000000e6b       0xfd bin/obj/arm/exceptions/handlers/el2/el2_cur_sp0_sync.o
 .debug_line_str
                0x0000000000000e6b       0xfa bin/obj/arm/exceptions/handlers/el2/el2_cur_spx_irq.o
 .debug_line_str
                0x0000000000000e6b      0x115 bin/obj/arm/exceptions/exceptions.o
 .debug_line_str
                0x0000000000000e6b       0xaf bin/obj/lib/string.o
 .debug_line_str
                0x0000000000000e6b      0x117 bin/obj/lib/memcpy/memcpy.o
 .debug_line_str
                0x0000000000000e6b      0x14f bin/obj/boot/panic/panic.o
 .debug_line_str
                0x0000000000000e6b      0x1a1 bin/obj/drivers/arm_generic_timer/arm_generic_timer.o
 .debug_line_str
                0x0000000000000e6b      0x1a9 bin/obj/drivers/tmu/tmu.o
 .debug_line_str
                0x0000000000000e6b      0x220 bin/obj/drivers/interrupts/gicv3/gicv3.o
 .debug_line_str
                0x0000000000000e6b       0x49 bin/obj/drivers/interrupts/irq.o
 .debug_line_str
                0x0000000000000e6b      0x1da bin/obj/drivers/uart/uart.o

.debug_info     0x0000000000000000    0x300a5
 .debug_info    0x0000000000000000       0x28 bin/obj/__arm/cache/cache.o
 .debug_info    0x0000000000000028       0x28 bin/obj/__arm/cache/icache.o
 .debug_info    0x0000000000000050       0x28 bin/obj/__arm/cache/dcache.o
 .debug_info    0x0000000000000078       0x29 bin/obj/__arm/sysregs/arm_generic_timer.o
 .debug_info    0x00000000000000a1       0x28 bin/obj/__arm/sysregs/sysregs.o
 .debug_info    0x00000000000000c9       0x23 bin/obj/__arm/exceptions/el2_vectors.o
 .debug_info    0x00000000000000ec       0x28 bin/obj/__arm/exceptions/exceptions.o
 .debug_info    0x0000000000000114       0x23 bin/obj/__arm/exceptions/el1_vectors.o
 .debug_info    0x0000000000000137       0x29 bin/obj/__lib/memcpy/memcpy.o
 .debug_info    0x0000000000000160       0x28 bin/obj/__lib/lock/spinlock_irq.o
 .debug_info    0x0000000000000188       0x28 bin/obj/__lib/lock/irqlock.o
 .debug_info    0x00000000000001b0       0x28 bin/obj/__lib/lock/spinlock.o
 .debug_info    0x00000000000001d8       0x28 bin/obj/__boot/clean_bss.o
 .debug_info    0x0000000000000200       0x28 bin/obj/__boot/boot.o
 .debug_info    0x0000000000000228       0x29 bin/obj/__boot/el1.o
 .debug_info    0x0000000000000251       0x28 bin/obj/__boot/panic/panic.o
 .debug_info    0x0000000000000279       0x28 bin/obj/__drivers/tmu/tmu_critical_default.o
 .debug_info    0x00000000000002a1       0x28 bin/obj/__drivers/interrupts/gicv3/gicv3_arm_interface.o
 .debug_info    0x00000000000002c9      0x76f bin/obj/kernel/irq/irq.o
 .debug_info    0x0000000000000a38      0x48d bin/obj/kernel/devices/drivers.o
 .debug_info    0x0000000000000ec5      0x7a1 bin/obj/kernel/init/init_drivers.o
 .debug_info    0x0000000000001666      0x2f9 bin/obj/kernel/init/init.o
 .debug_info    0x000000000000195f      0x495 bin/obj/kernel/kernel_entry.o
 .debug_info    0x0000000000001df4      0x116 bin/obj/arm/cpu.o
 .debug_info    0x0000000000001f0a      0x15e bin/obj/arm/exceptions/handlers/el1/el1_cur_sp0_fiq.o
 .debug_info    0x0000000000002068      0x15e bin/obj/arm/exceptions/handlers/el1/el1_low_a32_serror.o
 .debug_info    0x00000000000021c6      0x15e bin/obj/arm/exceptions/handlers/el1/el1_low_a32_fiq.o
 .debug_info    0x0000000000002324      0x15e bin/obj/arm/exceptions/handlers/el1/el1_low_a64_sync.o
 .debug_info    0x0000000000002482      0x15e bin/obj/arm/exceptions/handlers/el1/el1_cur_spx_sync.o
 .debug_info    0x00000000000025e0      0x15e bin/obj/arm/exceptions/handlers/el1/el1_cur_spx_fiq.o
 .debug_info    0x000000000000273e      0x108 bin/obj/arm/exceptions/handlers/el1/el1_cur_spx_irq.o
 .debug_info    0x0000000000002846      0x15e bin/obj/arm/exceptions/handlers/el1/el1_cur_spx_serror.o
 .debug_info    0x00000000000029a4      0x15e bin/obj/arm/exceptions/handlers/el1/el1_low_a32_irq.o
 .debug_info    0x0000000000002b02      0x15e bin/obj/arm/exceptions/handlers/el1/el1_low_a64_fiq.o
 .debug_info    0x0000000000002c60      0x15e bin/obj/arm/exceptions/handlers/el1/el1_low_a64_irq.o
 .debug_info    0x0000000000002dbe      0x15e bin/obj/arm/exceptions/handlers/el1/el1_cur_sp0_sync.o
 .debug_info    0x0000000000002f1c      0x15e bin/obj/arm/exceptions/handlers/el1/el1_cur_sp0_irq.o
 .debug_info    0x000000000000307a      0x15e bin/obj/arm/exceptions/handlers/el1/el1_low_a64_serror.o
 .debug_info    0x00000000000031d8      0x15e bin/obj/arm/exceptions/handlers/el1/el1_low_a32_sync.o
 .debug_info    0x0000000000003336      0x15e bin/obj/arm/exceptions/handlers/el1/el1_cur_sp0_serror.o
 .debug_info    0x0000000000003494      0x15e bin/obj/arm/exceptions/handlers/el2/el2_low_a32_serror.o
 .debug_info    0x00000000000035f2      0x15e bin/obj/arm/exceptions/handlers/el2/el2_cur_spx_serror.o
 .debug_info    0x0000000000003750      0x15e bin/obj/arm/exceptions/handlers/el2/el2_low_a64_serror.o
 .debug_info    0x00000000000038ae      0x15e bin/obj/arm/exceptions/handlers/el2/el2_low_a64_sync.o
 .debug_info    0x0000000000003a0c      0x15e bin/obj/arm/exceptions/handlers/el2/el2_cur_sp0_irq.o
 .debug_info    0x0000000000003b6a      0x15e bin/obj/arm/exceptions/handlers/el2/el2_cur_sp0_serror.o
 .debug_info    0x0000000000003cc8      0x15e bin/obj/arm/exceptions/handlers/el2/el2_low_a64_irq.o
 .debug_info    0x0000000000003e26      0x15e bin/obj/arm/exceptions/handlers/el2/el2_low_a64_fiq.o
 .debug_info    0x0000000000003f84      0x15e bin/obj/arm/exceptions/handlers/el2/el2_cur_spx_fiq.o
 .debug_info    0x00000000000040e2      0x15e bin/obj/arm/exceptions/handlers/el2/el2_low_a32_irq.o
 .debug_info    0x0000000000004240      0x15e bin/obj/arm/exceptions/handlers/el2/el2_cur_sp0_fiq.o
 .debug_info    0x000000000000439e      0x15e bin/obj/arm/exceptions/handlers/el2/el2_low_a32_fiq.o
 .debug_info    0x00000000000044fc      0x15e bin/obj/arm/exceptions/handlers/el2/el2_cur_spx_sync.o
 .debug_info    0x000000000000465a      0x15e bin/obj/arm/exceptions/handlers/el2/el2_low_a32_sync.o
 .debug_info    0x00000000000047b8      0x15e bin/obj/arm/exceptions/handlers/el2/el2_cur_sp0_sync.o
 .debug_info    0x0000000000004916      0x15e bin/obj/arm/exceptions/handlers/el2/el2_cur_spx_irq.o
 .debug_info    0x0000000000004a74      0x327 bin/obj/arm/exceptions/exceptions.o
 .debug_info    0x0000000000004d9b      0x47f bin/obj/lib/string.o
 .debug_info    0x000000000000521a      0x524 bin/obj/lib/memcpy/memcpy.o
 .debug_info    0x000000000000573e      0x889 bin/obj/boot/panic/panic.o
 .debug_info    0x0000000000005fc7      0x75d bin/obj/drivers/arm_generic_timer/arm_generic_timer.o
 .debug_info    0x0000000000006724     0x1a2f bin/obj/drivers/tmu/tmu.o
 .debug_info    0x0000000000008153     0x1275 bin/obj/drivers/interrupts/gicv3/gicv3.o
 .debug_info    0x00000000000093c8     0x2612 bin/obj/drivers/uart/uart.o
 .debug_info    0x000000000000b9da     0x16f8 bin/obj/rslib.a(imx8mp_kernel-d04bdacbb24302de.imx8mp_kernel.6f56ecdf942cbc9a-cgu.0.rcgu.o)
 .debug_info    0x000000000000d0d2    0x222ef bin/obj/rslib.a(core-9bc28a7f9131c3bd.core.d226853cd57cf678-cgu.0.rcgu.o)
 .debug_info    0x000000000002f3c1       0xad bin/obj/rslib.a(compiler_builtins-f062c31c443b6323.compiler_builtins.9d65875af80bedf9-cgu.155.rcgu.o)
 .debug_info    0x000000000002f46e       0xc9 bin/obj/rslib.a(compiler_builtins-f062c31c443b6323.compiler_builtins.9d65875af80bedf9-cgu.167.rcgu.o)
 .debug_info    0x000000000002f537      0x24c bin/obj/rslib.a(compiler_builtins-f062c31c443b6323.compiler_builtins.9d65875af80bedf9-cgu.195.rcgu.o)
 .debug_info    0x000000000002f783      0x333 bin/obj/rslib.a(compiler_builtins-f062c31c443b6323.compiler_builtins.9d65875af80bedf9-cgu.254.rcgu.o)
 .debug_info    0x000000000002fab6      0x5ef bin/obj/rslib.a(compiler_builtins-f062c31c443b6323.compiler_builtins.9d65875af80bedf9-cgu.010.rcgu.o)

.debug_abbrev   0x0000000000000000     0x3e8d
 .debug_abbrev  0x0000000000000000       0x14 bin/obj/__arm/cache/cache.o
 .debug_abbrev  0x0000000000000014       0x14 bin/obj/__arm/cache/icache.o
 .debug_abbrev  0x0000000000000028       0x14 bin/obj/__arm/cache/dcache.o
 .debug_abbrev  0x000000000000003c       0x14 bin/obj/__arm/sysregs/arm_generic_timer.o
 .debug_abbrev  0x0000000000000050       0x14 bin/obj/__arm/sysregs/sysregs.o
 .debug_abbrev  0x0000000000000064       0x12 bin/obj/__arm/exceptions/el2_vectors.o
 .debug_abbrev  0x0000000000000076       0x14 bin/obj/__arm/exceptions/exceptions.o
 .debug_abbrev  0x000000000000008a       0x12 bin/obj/__arm/exceptions/el1_vectors.o
 .debug_abbrev  0x000000000000009c       0x14 bin/obj/__lib/memcpy/memcpy.o
 .debug_abbrev  0x00000000000000b0       0x14 bin/obj/__lib/lock/spinlock_irq.o
 .debug_abbrev  0x00000000000000c4       0x14 bin/obj/__lib/lock/irqlock.o
 .debug_abbrev  0x00000000000000d8       0x14 bin/obj/__lib/lock/spinlock.o
 .debug_abbrev  0x00000000000000ec       0x14 bin/obj/__boot/clean_bss.o
 .debug_abbrev  0x0000000000000100       0x14 bin/obj/__boot/boot.o
 .debug_abbrev  0x0000000000000114       0x14 bin/obj/__boot/el1.o
 .debug_abbrev  0x0000000000000128       0x14 bin/obj/__boot/panic/panic.o
 .debug_abbrev  0x000000000000013c       0x14 bin/obj/__drivers/tmu/tmu_critical_default.o
 .debug_abbrev  0x0000000000000150       0x14 bin/obj/__drivers/interrupts/gicv3/gicv3_arm_interface.o
 .debug_abbrev  0x0000000000000164      0x1cc bin/obj/kernel/irq/irq.o
 .debug_abbrev  0x0000000000000330      0x168 bin/obj/kernel/devices/drivers.o
 .debug_abbrev  0x0000000000000498      0x181 bin/obj/kernel/init/init_drivers.o
 .debug_abbrev  0x0000000000000619      0x149 bin/obj/kernel/init/init.o
 .debug_abbrev  0x0000000000000762      0x1ee bin/obj/kernel/kernel_entry.o
 .debug_abbrev  0x0000000000000950       0xad bin/obj/arm/cpu.o
 .debug_abbrev  0x00000000000009fd       0xca bin/obj/arm/exceptions/handlers/el1/el1_cur_sp0_fiq.o
 .debug_abbrev  0x0000000000000ac7       0xca bin/obj/arm/exceptions/handlers/el1/el1_low_a32_serror.o
 .debug_abbrev  0x0000000000000b91       0xca bin/obj/arm/exceptions/handlers/el1/el1_low_a32_fiq.o
 .debug_abbrev  0x0000000000000c5b       0xca bin/obj/arm/exceptions/handlers/el1/el1_low_a64_sync.o
 .debug_abbrev  0x0000000000000d25       0xca bin/obj/arm/exceptions/handlers/el1/el1_cur_spx_sync.o
 .debug_abbrev  0x0000000000000def       0xca bin/obj/arm/exceptions/handlers/el1/el1_cur_spx_fiq.o
 .debug_abbrev  0x0000000000000eb9       0xb5 bin/obj/arm/exceptions/handlers/el1/el1_cur_spx_irq.o
 .debug_abbrev  0x0000000000000f6e       0xca bin/obj/arm/exceptions/handlers/el1/el1_cur_spx_serror.o
 .debug_abbrev  0x0000000000001038       0xca bin/obj/arm/exceptions/handlers/el1/el1_low_a32_irq.o
 .debug_abbrev  0x0000000000001102       0xca bin/obj/arm/exceptions/handlers/el1/el1_low_a64_fiq.o
 .debug_abbrev  0x00000000000011cc       0xca bin/obj/arm/exceptions/handlers/el1/el1_low_a64_irq.o
 .debug_abbrev  0x0000000000001296       0xca bin/obj/arm/exceptions/handlers/el1/el1_cur_sp0_sync.o
 .debug_abbrev  0x0000000000001360       0xca bin/obj/arm/exceptions/handlers/el1/el1_cur_sp0_irq.o
 .debug_abbrev  0x000000000000142a       0xca bin/obj/arm/exceptions/handlers/el1/el1_low_a64_serror.o
 .debug_abbrev  0x00000000000014f4       0xca bin/obj/arm/exceptions/handlers/el1/el1_low_a32_sync.o
 .debug_abbrev  0x00000000000015be       0xca bin/obj/arm/exceptions/handlers/el1/el1_cur_sp0_serror.o
 .debug_abbrev  0x0000000000001688       0xca bin/obj/arm/exceptions/handlers/el2/el2_low_a32_serror.o
 .debug_abbrev  0x0000000000001752       0xca bin/obj/arm/exceptions/handlers/el2/el2_cur_spx_serror.o
 .debug_abbrev  0x000000000000181c       0xca bin/obj/arm/exceptions/handlers/el2/el2_low_a64_serror.o
 .debug_abbrev  0x00000000000018e6       0xca bin/obj/arm/exceptions/handlers/el2/el2_low_a64_sync.o
 .debug_abbrev  0x00000000000019b0       0xca bin/obj/arm/exceptions/handlers/el2/el2_cur_sp0_irq.o
 .debug_abbrev  0x0000000000001a7a       0xca bin/obj/arm/exceptions/handlers/el2/el2_cur_sp0_serror.o
 .debug_abbrev  0x0000000000001b44       0xca bin/obj/arm/exceptions/handlers/el2/el2_low_a64_irq.o
 .debug_abbrev  0x0000000000001c0e       0xca bin/obj/arm/exceptions/handlers/el2/el2_low_a64_fiq.o
 .debug_abbrev  0x0000000000001cd8       0xca bin/obj/arm/exceptions/handlers/el2/el2_cur_spx_fiq.o
 .debug_abbrev  0x0000000000001da2       0xca bin/obj/arm/exceptions/handlers/el2/el2_low_a32_irq.o
 .debug_abbrev  0x0000000000001e6c       0xca bin/obj/arm/exceptions/handlers/el2/el2_cur_sp0_fiq.o
 .debug_abbrev  0x0000000000001f36       0xca bin/obj/arm/exceptions/handlers/el2/el2_low_a32_fiq.o
 .debug_abbrev  0x0000000000002000       0xca bin/obj/arm/exceptions/handlers/el2/el2_cur_spx_sync.o
 .debug_abbrev  0x00000000000020ca       0xca bin/obj/arm/exceptions/handlers/el2/el2_low_a32_sync.o
 .debug_abbrev  0x0000000000002194       0xca bin/obj/arm/exceptions/handlers/el2/el2_cur_sp0_sync.o
 .debug_abbrev  0x000000000000225e       0xca bin/obj/arm/exceptions/handlers/el2/el2_cur_spx_irq.o
 .debug_abbrev  0x0000000000002328      0x163 bin/obj/arm/exceptions/exceptions.o
 .debug_abbrev  0x000000000000248b      0x193 bin/obj/lib/string.o
 .debug_abbrev  0x000000000000261e      0x1f1 bin/obj/lib/memcpy/memcpy.o
 .debug_abbrev  0x000000000000280f      0x25b bin/obj/boot/panic/panic.o
 .debug_abbrev  0x0000000000002a6a      0x1d7 bin/obj/drivers/arm_generic_timer/arm_generic_timer.o
 .debug_abbrev  0x0000000000002c41      0x345 bin/obj/drivers/tmu/tmu.o
 .debug_abbrev  0x0000000000002f86      0x1f6 bin/obj/drivers/interrupts/gicv3/gicv3.o
 .debug_abbrev  0x000000000000317c      0x318 bin/obj/drivers/uart/uart.o
 .debug_abbrev  0x0000000000003494      0x31e bin/obj/rslib.a(imx8mp_kernel-d04bdacbb24302de.imx8mp_kernel.6f56ecdf942cbc9a-cgu.0.rcgu.o)
 .debug_abbrev  0x00000000000037b2      0x31b bin/obj/rslib.a(core-9bc28a7f9131c3bd.core.d226853cd57cf678-cgu.0.rcgu.o)
 .debug_abbrev  0x0000000000003acd       0x5f bin/obj/rslib.a(compiler_builtins-f062c31c443b6323.compiler_builtins.9d65875af80bedf9-cgu.155.rcgu.o)
 .debug_abbrev  0x0000000000003b2c       0x7f bin/obj/rslib.a(compiler_builtins-f062c31c443b6323.compiler_builtins.9d65875af80bedf9-cgu.167.rcgu.o)
 .debug_abbrev  0x0000000000003bab       0xc1 bin/obj/rslib.a(compiler_builtins-f062c31c443b6323.compiler_builtins.9d65875af80bedf9-cgu.195.rcgu.o)
 .debug_abbrev  0x0000000000003c6c      0x104 bin/obj/rslib.a(compiler_builtins-f062c31c443b6323.compiler_builtins.9d65875af80bedf9-cgu.254.rcgu.o)
 .debug_abbrev  0x0000000000003d70      0x11d bin/obj/rslib.a(compiler_builtins-f062c31c443b6323.compiler_builtins.9d65875af80bedf9-cgu.010.rcgu.o)

.debug_aranges  0x0000000000000000     0x2e90
 .debug_aranges
                0x0000000000000000       0x30 bin/obj/__arm/cache/cache.o
 .debug_aranges
                0x0000000000000030       0x30 bin/obj/__arm/cache/icache.o
 .debug_aranges
                0x0000000000000060       0x30 bin/obj/__arm/cache/dcache.o
 .debug_aranges
                0x0000000000000090       0x30 bin/obj/__arm/sysregs/arm_generic_timer.o
 .debug_aranges
                0x00000000000000c0       0x30 bin/obj/__arm/sysregs/sysregs.o
 .debug_aranges
                0x00000000000000f0       0x40 bin/obj/__arm/exceptions/el2_vectors.o
 .debug_aranges
                0x0000000000000130       0x30 bin/obj/__arm/exceptions/exceptions.o
 .debug_aranges
                0x0000000000000160       0x40 bin/obj/__arm/exceptions/el1_vectors.o
 .debug_aranges
                0x00000000000001a0       0x30 bin/obj/__lib/memcpy/memcpy.o
 .debug_aranges
                0x00000000000001d0       0x30 bin/obj/__lib/lock/spinlock_irq.o
 .debug_aranges
                0x0000000000000200       0x30 bin/obj/__lib/lock/irqlock.o
 .debug_aranges
                0x0000000000000230       0x30 bin/obj/__lib/lock/spinlock.o
 .debug_aranges
                0x0000000000000260       0x30 bin/obj/__boot/clean_bss.o
 .debug_aranges
                0x0000000000000290       0x30 bin/obj/__boot/boot.o
 .debug_aranges
                0x00000000000002c0       0x30 bin/obj/__boot/el1.o
 .debug_aranges
                0x00000000000002f0       0x30 bin/obj/__boot/panic/panic.o
 .debug_aranges
                0x0000000000000320       0x30 bin/obj/__drivers/tmu/tmu_critical_default.o
 .debug_aranges
                0x0000000000000350       0x30 bin/obj/__drivers/interrupts/gicv3/gicv3_arm_interface.o
 .debug_aranges
                0x0000000000000380       0x30 bin/obj/kernel/irq/irq.o
 .debug_aranges
                0x00000000000003b0       0x20 bin/obj/kernel/devices/drivers.o
 .debug_aranges
                0x00000000000003d0       0x30 bin/obj/kernel/init/init_drivers.o
 .debug_aranges
                0x0000000000000400       0x30 bin/obj/kernel/init/init.o
 .debug_aranges
                0x0000000000000430       0x30 bin/obj/kernel/kernel_entry.o
 .debug_aranges
                0x0000000000000460       0x30 bin/obj/arm/cpu.o
 .debug_aranges
                0x0000000000000490       0x30 bin/obj/arm/exceptions/handlers/el1/el1_cur_sp0_fiq.o
 .debug_aranges
                0x00000000000004c0       0x30 bin/obj/arm/exceptions/handlers/el1/el1_low_a32_serror.o
 .debug_aranges
                0x00000000000004f0       0x30 bin/obj/arm/exceptions/handlers/el1/el1_low_a32_fiq.o
 .debug_aranges
                0x0000000000000520       0x30 bin/obj/arm/exceptions/handlers/el1/el1_low_a64_sync.o
 .debug_aranges
                0x0000000000000550       0x30 bin/obj/arm/exceptions/handlers/el1/el1_cur_spx_sync.o
 .debug_aranges
                0x0000000000000580       0x30 bin/obj/arm/exceptions/handlers/el1/el1_cur_spx_fiq.o
 .debug_aranges
                0x00000000000005b0       0x30 bin/obj/arm/exceptions/handlers/el1/el1_cur_spx_irq.o
 .debug_aranges
                0x00000000000005e0       0x30 bin/obj/arm/exceptions/handlers/el1/el1_cur_spx_serror.o
 .debug_aranges
                0x0000000000000610       0x30 bin/obj/arm/exceptions/handlers/el1/el1_low_a32_irq.o
 .debug_aranges
                0x0000000000000640       0x30 bin/obj/arm/exceptions/handlers/el1/el1_low_a64_fiq.o
 .debug_aranges
                0x0000000000000670       0x30 bin/obj/arm/exceptions/handlers/el1/el1_low_a64_irq.o
 .debug_aranges
                0x00000000000006a0       0x30 bin/obj/arm/exceptions/handlers/el1/el1_cur_sp0_sync.o
 .debug_aranges
                0x00000000000006d0       0x30 bin/obj/arm/exceptions/handlers/el1/el1_cur_sp0_irq.o
 .debug_aranges
                0x0000000000000700       0x30 bin/obj/arm/exceptions/handlers/el1/el1_low_a64_serror.o
 .debug_aranges
                0x0000000000000730       0x30 bin/obj/arm/exceptions/handlers/el1/el1_low_a32_sync.o
 .debug_aranges
                0x0000000000000760       0x30 bin/obj/arm/exceptions/handlers/el1/el1_cur_sp0_serror.o
 .debug_aranges
                0x0000000000000790       0x30 bin/obj/arm/exceptions/handlers/el2/el2_low_a32_serror.o
 .debug_aranges
                0x00000000000007c0       0x30 bin/obj/arm/exceptions/handlers/el2/el2_cur_spx_serror.o
 .debug_aranges
                0x00000000000007f0       0x30 bin/obj/arm/exceptions/handlers/el2/el2_low_a64_serror.o
 .debug_aranges
                0x0000000000000820       0x30 bin/obj/arm/exceptions/handlers/el2/el2_low_a64_sync.o
 .debug_aranges
                0x0000000000000850       0x30 bin/obj/arm/exceptions/handlers/el2/el2_cur_sp0_irq.o
 .debug_aranges
                0x0000000000000880       0x30 bin/obj/arm/exceptions/handlers/el2/el2_cur_sp0_serror.o
 .debug_aranges
                0x00000000000008b0       0x30 bin/obj/arm/exceptions/handlers/el2/el2_low_a64_irq.o
 .debug_aranges
                0x00000000000008e0       0x30 bin/obj/arm/exceptions/handlers/el2/el2_low_a64_fiq.o
 .debug_aranges
                0x0000000000000910       0x30 bin/obj/arm/exceptions/handlers/el2/el2_cur_spx_fiq.o
 .debug_aranges
                0x0000000000000940       0x30 bin/obj/arm/exceptions/handlers/el2/el2_low_a32_irq.o
 .debug_aranges
                0x0000000000000970       0x30 bin/obj/arm/exceptions/handlers/el2/el2_cur_sp0_fiq.o
 .debug_aranges
                0x00000000000009a0       0x30 bin/obj/arm/exceptions/handlers/el2/el2_low_a32_fiq.o
 .debug_aranges
                0x00000000000009d0       0x30 bin/obj/arm/exceptions/handlers/el2/el2_cur_spx_sync.o
 .debug_aranges
                0x0000000000000a00       0x30 bin/obj/arm/exceptions/handlers/el2/el2_low_a32_sync.o
 .debug_aranges
                0x0000000000000a30       0x30 bin/obj/arm/exceptions/handlers/el2/el2_cur_sp0_sync.o
 .debug_aranges
                0x0000000000000a60       0x30 bin/obj/arm/exceptions/handlers/el2/el2_cur_spx_irq.o
 .debug_aranges
                0x0000000000000a90       0x30 bin/obj/arm/exceptions/exceptions.o
 .debug_aranges
                0x0000000000000ac0       0x30 bin/obj/lib/string.o
 .debug_aranges
                0x0000000000000af0       0x30 bin/obj/lib/memcpy/memcpy.o
 .debug_aranges
                0x0000000000000b20       0x30 bin/obj/boot/panic/panic.o
 .debug_aranges
                0x0000000000000b50       0x30 bin/obj/drivers/arm_generic_timer/arm_generic_timer.o
 .debug_aranges
                0x0000000000000b80       0x30 bin/obj/drivers/tmu/tmu.o
 .debug_aranges
                0x0000000000000bb0       0x30 bin/obj/drivers/interrupts/gicv3/gicv3.o
 .debug_aranges
                0x0000000000000be0       0x30 bin/obj/drivers/uart/uart.o
 .debug_aranges
                0x0000000000000c10       0xf0 bin/obj/rslib.a(imx8mp_kernel-d04bdacbb24302de.imx8mp_kernel.6f56ecdf942cbc9a-cgu.0.rcgu.o)
 .debug_aranges
                0x0000000000000d00     0x2080 bin/obj/rslib.a(core-9bc28a7f9131c3bd.core.d226853cd57cf678-cgu.0.rcgu.o)
 .debug_aranges
                0x0000000000002d80       0x30 bin/obj/rslib.a(compiler_builtins-f062c31c443b6323.compiler_builtins.9d65875af80bedf9-cgu.155.rcgu.o)
 .debug_aranges
                0x0000000000002db0       0x30 bin/obj/rslib.a(compiler_builtins-f062c31c443b6323.compiler_builtins.9d65875af80bedf9-cgu.167.rcgu.o)
 .debug_aranges
                0x0000000000002de0       0x30 bin/obj/rslib.a(compiler_builtins-f062c31c443b6323.compiler_builtins.9d65875af80bedf9-cgu.195.rcgu.o)
 .debug_aranges
                0x0000000000002e10       0x30 bin/obj/rslib.a(compiler_builtins-f062c31c443b6323.compiler_builtins.9d65875af80bedf9-cgu.254.rcgu.o)
 .debug_aranges
                0x0000000000002e40       0x50 bin/obj/rslib.a(compiler_builtins-f062c31c443b6323.compiler_builtins.9d65875af80bedf9-cgu.010.rcgu.o)

.debug_str      0x0000000000000000    0x3e8fb
 .debug_str     0x0000000000000000    0x3e8fb bin/obj/__arm/cache/cache.o
                                         0x50 (size before relaxing)
 .debug_str     0x000000000003e8fb       0x51 bin/obj/__arm/cache/icache.o
 .debug_str     0x000000000003e8fb       0x51 bin/obj/__arm/cache/dcache.o
 .debug_str     0x000000000003e8fb       0x5e bin/obj/__arm/sysregs/arm_generic_timer.o
 .debug_str     0x000000000003e8fb       0x54 bin/obj/__arm/sysregs/sysregs.o
 .debug_str     0x000000000003e8fb       0x5b bin/obj/__arm/exceptions/el2_vectors.o
 .debug_str     0x000000000003e8fb       0x5a bin/obj/__arm/exceptions/exceptions.o
 .debug_str     0x000000000003e8fb       0x5b bin/obj/__arm/exceptions/el1_vectors.o
 .debug_str     0x000000000003e8fb       0x52 bin/obj/__lib/memcpy/memcpy.o
 .debug_str     0x000000000003e8fb       0x56 bin/obj/__lib/lock/spinlock_irq.o
 .debug_str     0x000000000003e8fb       0x51 bin/obj/__lib/lock/irqlock.o
 .debug_str     0x000000000003e8fb       0x52 bin/obj/__lib/lock/spinlock.o
 .debug_str     0x000000000003e8fb       0x4f bin/obj/__boot/clean_bss.o
 .debug_str     0x000000000003e8fb       0x4a bin/obj/__boot/boot.o
 .debug_str     0x000000000003e8fb       0x49 bin/obj/__boot/el1.o
 .debug_str     0x000000000003e8fb       0x51 bin/obj/__boot/panic/panic.o
 .debug_str     0x000000000003e8fb       0x61 bin/obj/__drivers/tmu/tmu_critical_default.o
 .debug_str     0x000000000003e8fb       0x6d bin/obj/__drivers/interrupts/gicv3/gicv3_arm_interface.o
 .debug_str     0x000000000003e8fb      0xfa2 bin/obj/kernel/irq/irq.o
 .debug_str     0x000000000003e8fb      0x32e bin/obj/kernel/devices/drivers.o
 .debug_str     0x000000000003e8fb      0xfdf bin/obj/kernel/init/init_drivers.o
 .debug_str     0x000000000003e8fb      0x366 bin/obj/kernel/init/init.o
 .debug_str     0x000000000003e8fb       0x79 bin/obj/kernel/malloc/buddy_allocator.o
 .debug_str     0x000000000003e8fb      0x36f bin/obj/kernel/kernel_entry.o
 .debug_str     0x000000000003e8fb      0x159 bin/obj/arm/cpu.o
 .debug_str     0x000000000003e8fb      0x1d7 bin/obj/arm/exceptions/handlers/el1/el1_cur_sp0_fiq.o
 .debug_str     0x000000000003e8fb      0x1da bin/obj/arm/exceptions/handlers/el1/el1_low_a32_serror.o
 .debug_str     0x000000000003e8fb      0x1d7 bin/obj/arm/exceptions/handlers/el1/el1_low_a32_fiq.o
 .debug_str     0x000000000003e8fb      0x1d8 bin/obj/arm/exceptions/handlers/el1/el1_low_a64_sync.o
 .debug_str     0x000000000003e8fb      0x1d8 bin/obj/arm/exceptions/handlers/el1/el1_cur_spx_sync.o
 .debug_str     0x000000000003e8fb      0x1d7 bin/obj/arm/exceptions/handlers/el1/el1_cur_spx_fiq.o
 .debug_str     0x000000000003e8fb      0x16e bin/obj/arm/exceptions/handlers/el1/el1_cur_spx_irq.o
 .debug_str     0x000000000003e8fb      0x1da bin/obj/arm/exceptions/handlers/el1/el1_cur_spx_serror.o
 .debug_str     0x000000000003e8fb      0x1d7 bin/obj/arm/exceptions/handlers/el1/el1_low_a32_irq.o
 .debug_str     0x000000000003e8fb      0x1d7 bin/obj/arm/exceptions/handlers/el1/el1_low_a64_fiq.o
 .debug_str     0x000000000003e8fb      0x1d7 bin/obj/arm/exceptions/handlers/el1/el1_low_a64_irq.o
 .debug_str     0x000000000003e8fb      0x1d8 bin/obj/arm/exceptions/handlers/el1/el1_cur_sp0_sync.o
 .debug_str     0x000000000003e8fb      0x1d7 bin/obj/arm/exceptions/handlers/el1/el1_cur_sp0_irq.o
 .debug_str     0x000000000003e8fb      0x1da bin/obj/arm/exceptions/handlers/el1/el1_low_a64_serror.o
 .debug_str     0x000000000003e8fb      0x1d8 bin/obj/arm/exceptions/handlers/el1/el1_low_a32_sync.o
 .debug_str     0x000000000003e8fb      0x1da bin/obj/arm/exceptions/handlers/el1/el1_cur_sp0_serror.o
 .debug_str     0x000000000003e8fb      0x1da bin/obj/arm/exceptions/handlers/el2/el2_low_a32_serror.o
 .debug_str     0x000000000003e8fb      0x1da bin/obj/arm/exceptions/handlers/el2/el2_cur_spx_serror.o
 .debug_str     0x000000000003e8fb      0x1da bin/obj/arm/exceptions/handlers/el2/el2_low_a64_serror.o
 .debug_str     0x000000000003e8fb      0x1d8 bin/obj/arm/exceptions/handlers/el2/el2_low_a64_sync.o
 .debug_str     0x000000000003e8fb      0x1d7 bin/obj/arm/exceptions/handlers/el2/el2_cur_sp0_irq.o
 .debug_str     0x000000000003e8fb      0x1da bin/obj/arm/exceptions/handlers/el2/el2_cur_sp0_serror.o
 .debug_str     0x000000000003e8fb      0x1d7 bin/obj/arm/exceptions/handlers/el2/el2_low_a64_irq.o
 .debug_str     0x000000000003e8fb      0x1d7 bin/obj/arm/exceptions/handlers/el2/el2_low_a64_fiq.o
 .debug_str     0x000000000003e8fb      0x1d7 bin/obj/arm/exceptions/handlers/el2/el2_cur_spx_fiq.o
 .debug_str     0x000000000003e8fb      0x1d7 bin/obj/arm/exceptions/handlers/el2/el2_low_a32_irq.o
 .debug_str     0x000000000003e8fb      0x1d7 bin/obj/arm/exceptions/handlers/el2/el2_cur_sp0_fiq.o
 .debug_str     0x000000000003e8fb      0x1d7 bin/obj/arm/exceptions/handlers/el2/el2_low_a32_fiq.o
 .debug_str     0x000000000003e8fb      0x1d8 bin/obj/arm/exceptions/handlers/el2/el2_cur_spx_sync.o
 .debug_str     0x000000000003e8fb      0x1d8 bin/obj/arm/exceptions/handlers/el2/el2_low_a32_sync.o
 .debug_str     0x000000000003e8fb      0x1d8 bin/obj/arm/exceptions/handlers/el2/el2_cur_sp0_sync.o
 .debug_str     0x000000000003e8fb      0x1d7 bin/obj/arm/exceptions/handlers/el2/el2_cur_spx_irq.o
 .debug_str     0x000000000003e8fb      0x36c bin/obj/arm/exceptions/exceptions.o
 .debug_str     0x000000000003e8fb      0x389 bin/obj/lib/string.o
 .debug_str     0x000000000003e8fb      0x370 bin/obj/lib/memcpy/memcpy.o
 .debug_str     0x000000000003e8fb      0x5b3 bin/obj/boot/panic/panic.o
 .debug_str     0x000000000003e8fb      0x3ee bin/obj/drivers/arm_generic_timer/arm_generic_timer.o
 .debug_str     0x000000000003e8fb      0xafd bin/obj/drivers/tmu/tmu.o
 .debug_str     0x000000000003e8fb      0x8e7 bin/obj/drivers/interrupts/gicv3/gicv3.o
 .debug_str     0x000000000003e8fb       0x79 bin/obj/drivers/interrupts/irq.o
 .debug_str     0x000000000003e8fb      0xe77 bin/obj/drivers/uart/uart.o
 .debug_str     0x000000000003e8fb     0x1344 bin/obj/rslib.a(imx8mp_kernel-d04bdacbb24302de.imx8mp_kernel.6f56ecdf942cbc9a-cgu.0.rcgu.o)
 .debug_str     0x000000000003e8fb    0x3929e bin/obj/rslib.a(core-9bc28a7f9131c3bd.core.d226853cd57cf678-cgu.0.rcgu.o)
 .debug_str     0x000000000003e8fb      0x194 bin/obj/rslib.a(compiler_builtins-f062c31c443b6323.compiler_builtins.9d65875af80bedf9-cgu.155.rcgu.o)
 .debug_str     0x000000000003e8fb      0x1dc bin/obj/rslib.a(compiler_builtins-f062c31c443b6323.compiler_builtins.9d65875af80bedf9-cgu.167.rcgu.o)
 .debug_str     0x000000000003e8fb      0x47f bin/obj/rslib.a(compiler_builtins-f062c31c443b6323.compiler_builtins.9d65875af80bedf9-cgu.195.rcgu.o)
 .debug_str     0x000000000003e8fb      0x7b4 bin/obj/rslib.a(compiler_builtins-f062c31c443b6323.compiler_builtins.9d65875af80bedf9-cgu.254.rcgu.o)
 .debug_str     0x000000000003e8fb      0x981 bin/obj/rslib.a(compiler_builtins-f062c31c443b6323.compiler_builtins.9d65875af80bedf9-cgu.010.rcgu.o)

.debug_rnglists
                0x0000000000000000       0x71
 .debug_rnglists
                0x0000000000000000       0x23 bin/obj/__arm/exceptions/el2_vectors.o
 .debug_rnglists
                0x0000000000000023       0x23 bin/obj/__arm/exceptions/el1_vectors.o
 .debug_rnglists
                0x0000000000000046       0x2b bin/obj/lib/string.o

.comment        0x0000000000000000       0x71
 .comment       0x0000000000000000       0x71 bin/obj/kernel/irq/irq.o
                                         0x46 (size before relaxing)
 .comment       0x0000000000000071       0x46 bin/obj/kernel/devices/drivers.o
 .comment       0x0000000000000071       0x46 bin/obj/kernel/init/init_drivers.o
 .comment       0x0000000000000071       0x46 bin/obj/kernel/init/init.o
 .comment       0x0000000000000071       0x46 bin/obj/kernel/malloc/buddy_allocator.o
 .comment       0x0000000000000071       0x46 bin/obj/kernel/kernel_entry.o
 .comment       0x0000000000000071       0x46 bin/obj/arm/cpu.o
 .comment       0x0000000000000071       0x46 bin/obj/arm/exceptions/handlers/el1/el1_cur_sp0_fiq.o
 .comment       0x0000000000000071       0x46 bin/obj/arm/exceptions/handlers/el1/el1_low_a32_serror.o
 .comment       0x0000000000000071       0x46 bin/obj/arm/exceptions/handlers/el1/el1_low_a32_fiq.o
 .comment       0x0000000000000071       0x46 bin/obj/arm/exceptions/handlers/el1/el1_low_a64_sync.o
 .comment       0x0000000000000071       0x46 bin/obj/arm/exceptions/handlers/el1/el1_cur_spx_sync.o
 .comment       0x0000000000000071       0x46 bin/obj/arm/exceptions/handlers/el1/el1_cur_spx_fiq.o
 .comment       0x0000000000000071       0x46 bin/obj/arm/exceptions/handlers/el1/el1_cur_spx_irq.o
 .comment       0x0000000000000071       0x46 bin/obj/arm/exceptions/handlers/el1/el1_cur_spx_serror.o
 .comment       0x0000000000000071       0x46 bin/obj/arm/exceptions/handlers/el1/el1_low_a32_irq.o
 .comment       0x0000000000000071       0x46 bin/obj/arm/exceptions/handlers/el1/el1_low_a64_fiq.o
 .comment       0x0000000000000071       0x46 bin/obj/arm/exceptions/handlers/el1/el1_low_a64_irq.o
 .comment       0x0000000000000071       0x46 bin/obj/arm/exceptions/handlers/el1/el1_cur_sp0_sync.o
 .comment       0x0000000000000071       0x46 bin/obj/arm/exceptions/handlers/el1/el1_cur_sp0_irq.o
 .comment       0x0000000000000071       0x46 bin/obj/arm/exceptions/handlers/el1/el1_low_a64_serror.o
 .comment       0x0000000000000071       0x46 bin/obj/arm/exceptions/handlers/el1/el1_low_a32_sync.o
 .comment       0x0000000000000071       0x46 bin/obj/arm/exceptions/handlers/el1/el1_cur_sp0_serror.o
 .comment       0x0000000000000071       0x46 bin/obj/arm/exceptions/handlers/el2/el2_low_a32_serror.o
 .comment       0x0000000000000071       0x46 bin/obj/arm/exceptions/handlers/el2/el2_cur_spx_serror.o
 .comment       0x0000000000000071       0x46 bin/obj/arm/exceptions/handlers/el2/el2_low_a64_serror.o
 .comment       0x0000000000000071       0x46 bin/obj/arm/exceptions/handlers/el2/el2_low_a64_sync.o
 .comment       0x0000000000000071       0x46 bin/obj/arm/exceptions/handlers/el2/el2_cur_sp0_irq.o
 .comment       0x0000000000000071       0x46 bin/obj/arm/exceptions/handlers/el2/el2_cur_sp0_serror.o
 .comment       0x0000000000000071       0x46 bin/obj/arm/exceptions/handlers/el2/el2_low_a64_irq.o
 .comment       0x0000000000000071       0x46 bin/obj/arm/exceptions/handlers/el2/el2_low_a64_fiq.o
 .comment       0x0000000000000071       0x46 bin/obj/arm/exceptions/handlers/el2/el2_cur_spx_fiq.o
 .comment       0x0000000000000071       0x46 bin/obj/arm/exceptions/handlers/el2/el2_low_a32_irq.o
 .comment       0x0000000000000071       0x46 bin/obj/arm/exceptions/handlers/el2/el2_cur_sp0_fiq.o
 .comment       0x0000000000000071       0x46 bin/obj/arm/exceptions/handlers/el2/el2_low_a32_fiq.o
 .comment       0x0000000000000071       0x46 bin/obj/arm/exceptions/handlers/el2/el2_cur_spx_sync.o
 .comment       0x0000000000000071       0x46 bin/obj/arm/exceptions/handlers/el2/el2_low_a32_sync.o
 .comment       0x0000000000000071       0x46 bin/obj/arm/exceptions/handlers/el2/el2_cur_sp0_sync.o
 .comment       0x0000000000000071       0x46 bin/obj/arm/exceptions/handlers/el2/el2_cur_spx_irq.o
 .comment       0x0000000000000071       0x46 bin/obj/arm/exceptions/exceptions.o
 .comment       0x0000000000000071       0x46 bin/obj/lib/string.o
 .comment       0x0000000000000071       0x46 bin/obj/lib/memcpy/memcpy.o
 .comment       0x0000000000000071       0x46 bin/obj/boot/panic/panic.o
 .comment       0x0000000000000071       0x46 bin/obj/drivers/arm_generic_timer/arm_generic_timer.o
 .comment       0x0000000000000071       0x46 bin/obj/drivers/tmu/tmu.o
 .comment       0x0000000000000071       0x46 bin/obj/drivers/interrupts/gicv3/gicv3.o
 .comment       0x0000000000000071       0x46 bin/obj/drivers/interrupts/irq.o
 .comment       0x0000000000000071       0x46 bin/obj/drivers/uart/uart.o
 .comment       0x0000000000000071       0x2d bin/obj/rslib.a(imx8mp_kernel-d04bdacbb24302de.imx8mp_kernel.6f56ecdf942cbc9a-cgu.0.rcgu.o)
 .comment       0x0000000000000071       0x2d bin/obj/rslib.a(core-9bc28a7f9131c3bd.core.d226853cd57cf678-cgu.0.rcgu.o)
 .comment       0x0000000000000071       0x2d bin/obj/rslib.a(compiler_builtins-f062c31c443b6323.compiler_builtins.9d65875af80bedf9-cgu.155.rcgu.o)
 .comment       0x0000000000000071       0x2d bin/obj/rslib.a(compiler_builtins-f062c31c443b6323.compiler_builtins.9d65875af80bedf9-cgu.167.rcgu.o)
 .comment       0x0000000000000071       0x2d bin/obj/rslib.a(compiler_builtins-f062c31c443b6323.compiler_builtins.9d65875af80bedf9-cgu.195.rcgu.o)
 .comment       0x0000000000000071       0x2d bin/obj/rslib.a(compiler_builtins-f062c31c443b6323.compiler_builtins.9d65875af80bedf9-cgu.254.rcgu.o)
 .comment       0x0000000000000071       0x2d bin/obj/rslib.a(compiler_builtins-f062c31c443b6323.compiler_builtins.9d65875af80bedf9-cgu.010.rcgu.o)

.note.GNU-stack
                0x0000000000000000        0x0
 .note.GNU-stack
                0x0000000000000000        0x0 bin/obj/rslib.a(imx8mp_kernel-d04bdacbb24302de.imx8mp_kernel.6f56ecdf942cbc9a-cgu.0.rcgu.o)
 .note.GNU-stack
                0x0000000000000000        0x0 bin/obj/rslib.a(core-9bc28a7f9131c3bd.core.d226853cd57cf678-cgu.0.rcgu.o)
 .note.GNU-stack
                0x0000000000000000        0x0 bin/obj/rslib.a(compiler_builtins-f062c31c443b6323.compiler_builtins.9d65875af80bedf9-cgu.155.rcgu.o)
 .note.GNU-stack
                0x0000000000000000        0x0 bin/obj/rslib.a(compiler_builtins-f062c31c443b6323.compiler_builtins.9d65875af80bedf9-cgu.167.rcgu.o)
 .note.GNU-stack
                0x0000000000000000        0x0 bin/obj/rslib.a(compiler_builtins-f062c31c443b6323.compiler_builtins.9d65875af80bedf9-cgu.195.rcgu.o)
 .note.GNU-stack
                0x0000000000000000        0x0 bin/obj/rslib.a(compiler_builtins-f062c31c443b6323.compiler_builtins.9d65875af80bedf9-cgu.254.rcgu.o)
 .note.GNU-stack
                0x0000000000000000        0x0 bin/obj/rslib.a(compiler_builtins-f062c31c443b6323.compiler_builtins.9d65875af80bedf9-cgu.010.rcgu.o)

.debug_frame    0x0000000000000000     0x7380
 .debug_frame   0x0000000000000000       0xa8 bin/obj/kernel/irq/irq.o
 .debug_frame   0x00000000000000a8      0x148 bin/obj/kernel/init/init_drivers.o
 .debug_frame   0x00000000000001f0       0x40 bin/obj/kernel/init/init.o
 .debug_frame   0x0000000000000230       0xa0 bin/obj/kernel/kernel_entry.o
 .debug_frame   0x00000000000002d0       0x38 bin/obj/arm/cpu.o
 .debug_frame   0x0000000000000308       0x30 bin/obj/arm/exceptions/handlers/el1/el1_cur_sp0_fiq.o
 .debug_frame   0x0000000000000338       0x30 bin/obj/arm/exceptions/handlers/el1/el1_low_a32_serror.o
 .debug_frame   0x0000000000000368       0x30 bin/obj/arm/exceptions/handlers/el1/el1_low_a32_fiq.o
 .debug_frame   0x0000000000000398       0x30 bin/obj/arm/exceptions/handlers/el1/el1_low_a64_sync.o
 .debug_frame   0x00000000000003c8       0x30 bin/obj/arm/exceptions/handlers/el1/el1_cur_spx_sync.o
 .debug_frame   0x00000000000003f8       0x30 bin/obj/arm/exceptions/handlers/el1/el1_cur_spx_fiq.o
 .debug_frame   0x0000000000000428       0x38 bin/obj/arm/exceptions/handlers/el1/el1_cur_spx_irq.o
 .debug_frame   0x0000000000000460       0x30 bin/obj/arm/exceptions/handlers/el1/el1_cur_spx_serror.o
 .debug_frame   0x0000000000000490       0x30 bin/obj/arm/exceptions/handlers/el1/el1_low_a32_irq.o
 .debug_frame   0x00000000000004c0       0x30 bin/obj/arm/exceptions/handlers/el1/el1_low_a64_fiq.o
 .debug_frame   0x00000000000004f0       0x30 bin/obj/arm/exceptions/handlers/el1/el1_low_a64_irq.o
 .debug_frame   0x0000000000000520       0x30 bin/obj/arm/exceptions/handlers/el1/el1_cur_sp0_sync.o
 .debug_frame   0x0000000000000550       0x30 bin/obj/arm/exceptions/handlers/el1/el1_cur_sp0_irq.o
 .debug_frame   0x0000000000000580       0x30 bin/obj/arm/exceptions/handlers/el1/el1_low_a64_serror.o
 .debug_frame   0x00000000000005b0       0x30 bin/obj/arm/exceptions/handlers/el1/el1_low_a32_sync.o
 .debug_frame   0x00000000000005e0       0x30 bin/obj/arm/exceptions/handlers/el1/el1_cur_sp0_serror.o
 .debug_frame   0x0000000000000610       0x30 bin/obj/arm/exceptions/handlers/el2/el2_low_a32_serror.o
 .debug_frame   0x0000000000000640       0x30 bin/obj/arm/exceptions/handlers/el2/el2_cur_spx_serror.o
 .debug_frame   0x0000000000000670       0x30 bin/obj/arm/exceptions/handlers/el2/el2_low_a64_serror.o
 .debug_frame   0x00000000000006a0       0x30 bin/obj/arm/exceptions/handlers/el2/el2_low_a64_sync.o
 .debug_frame   0x00000000000006d0       0x30 bin/obj/arm/exceptions/handlers/el2/el2_cur_sp0_irq.o
 .debug_frame   0x0000000000000700       0x30 bin/obj/arm/exceptions/handlers/el2/el2_cur_sp0_serror.o
 .debug_frame   0x0000000000000730       0x30 bin/obj/arm/exceptions/handlers/el2/el2_low_a64_irq.o
 .debug_frame   0x0000000000000760       0x30 bin/obj/arm/exceptions/handlers/el2/el2_low_a64_fiq.o
 .debug_frame   0x0000000000000790       0x30 bin/obj/arm/exceptions/handlers/el2/el2_cur_spx_fiq.o
 .debug_frame   0x00000000000007c0       0x30 bin/obj/arm/exceptions/handlers/el2/el2_low_a32_irq.o
 .debug_frame   0x00000000000007f0       0x30 bin/obj/arm/exceptions/handlers/el2/el2_cur_sp0_fiq.o
 .debug_frame   0x0000000000000820       0x30 bin/obj/arm/exceptions/handlers/el2/el2_low_a32_fiq.o
 .debug_frame   0x0000000000000850       0x30 bin/obj/arm/exceptions/handlers/el2/el2_cur_spx_sync.o
 .debug_frame   0x0000000000000880       0x30 bin/obj/arm/exceptions/handlers/el2/el2_low_a32_sync.o
 .debug_frame   0x00000000000008b0       0x30 bin/obj/arm/exceptions/handlers/el2/el2_cur_sp0_sync.o
 .debug_frame   0x00000000000008e0       0x30 bin/obj/arm/exceptions/handlers/el2/el2_cur_spx_irq.o
 .debug_frame   0x0000000000000910       0xd8 bin/obj/arm/exceptions/exceptions.o
 .debug_frame   0x00000000000009e8       0x80 bin/obj/lib/string.o
 .debug_frame   0x0000000000000a68       0x88 bin/obj/lib/memcpy/memcpy.o
 .debug_frame   0x0000000000000af0      0x148 bin/obj/boot/panic/panic.o
 .debug_frame   0x0000000000000c38      0x278 bin/obj/drivers/arm_generic_timer/arm_generic_timer.o
 .debug_frame   0x0000000000000eb0      0x978 bin/obj/drivers/tmu/tmu.o
 .debug_frame   0x0000000000001828      0x6f0 bin/obj/drivers/interrupts/gicv3/gicv3.o
 .debug_frame   0x0000000000001f18      0xdf8 bin/obj/drivers/uart/uart.o
 .debug_frame   0x0000000000002d10      0x190 bin/obj/rslib.a(imx8mp_kernel-d04bdacbb24302de.imx8mp_kernel.6f56ecdf942cbc9a-cgu.0.rcgu.o)
 .debug_frame   0x0000000000002ea0     0x43b8 bin/obj/rslib.a(core-9bc28a7f9131c3bd.core.d226853cd57cf678-cgu.0.rcgu.o)
 .debug_frame   0x0000000000007258       0x38 bin/obj/rslib.a(compiler_builtins-f062c31c443b6323.compiler_builtins.9d65875af80bedf9-cgu.155.rcgu.o)
 .debug_frame   0x0000000000007290       0x30 bin/obj/rslib.a(compiler_builtins-f062c31c443b6323.compiler_builtins.9d65875af80bedf9-cgu.167.rcgu.o)
 .debug_frame   0x00000000000072c0       0x30 bin/obj/rslib.a(compiler_builtins-f062c31c443b6323.compiler_builtins.9d65875af80bedf9-cgu.195.rcgu.o)
 .debug_frame   0x00000000000072f0       0x30 bin/obj/rslib.a(compiler_builtins-f062c31c443b6323.compiler_builtins.9d65875af80bedf9-cgu.254.rcgu.o)
 .debug_frame   0x0000000000007320       0x60 bin/obj/rslib.a(compiler_builtins-f062c31c443b6323.compiler_builtins.9d65875af80bedf9-cgu.010.rcgu.o)

.debug_loc      0x0000000000000000      0xe38
 .debug_loc     0x0000000000000000      0xe38 bin/obj/rslib.a(imx8mp_kernel-d04bdacbb24302de.imx8mp_kernel.6f56ecdf942cbc9a-cgu.0.rcgu.o)

.debug_ranges   0x0000000000000000    0x1c740
 .debug_ranges  0x0000000000000000      0x690 bin/obj/rslib.a(imx8mp_kernel-d04bdacbb24302de.imx8mp_kernel.6f56ecdf942cbc9a-cgu.0.rcgu.o)
 .debug_ranges  0x0000000000000690    0x1bdc0 bin/obj/rslib.a(core-9bc28a7f9131c3bd.core.d226853cd57cf678-cgu.0.rcgu.o)
 .debug_ranges  0x000000000001c450       0x90 bin/obj/rslib.a(compiler_builtins-f062c31c443b6323.compiler_builtins.9d65875af80bedf9-cgu.195.rcgu.o)
 .debug_ranges  0x000000000001c4e0       0x90 bin/obj/rslib.a(compiler_builtins-f062c31c443b6323.compiler_builtins.9d65875af80bedf9-cgu.254.rcgu.o)
 .debug_ranges  0x000000000001c570      0x1d0 bin/obj/rslib.a(compiler_builtins-f062c31c443b6323.compiler_builtins.9d65875af80bedf9-cgu.010.rcgu.o)
